
/Users/zakaria/Documents/Mikrocontrollertechnik/Project/firmware/face_demo/build/face_demo.elf:     file format elf32-littlearm

Sections:
Idx Name          Size      VMA       LMA       File off  Algn
  0 .text         000045e0  10000000  10000000  00001000  2**3
                  CONTENTS, ALLOC, LOAD, READONLY, CODE
  1 .ARM.extab    00000000  100045e0  100045e0  000055e0  2**0
                  CONTENTS, ALLOC, LOAD, READONLY, DATA
  2 .ARM.exidx    00000008  100045e0  100045e0  000055e0  2**2
                  CONTENTS, ALLOC, LOAD, READONLY, DATA
  3 .rodata       000015cc  100045e8  100045e8  000055e8  2**2
                  CONTENTS, ALLOC, LOAD, READONLY, DATA
  4 .copy.table   00000018  10005bb4  10005bb4  00006bb4  2**0
                  CONTENTS, ALLOC, LOAD, DATA
  5 .zero.table   00000010  10005bcc  10005bcc  00006bcc  2**0
                  CONTENTS, ALLOC, LOAD, DATA
  6 .data         00000060  20000000  10005bdc  00007000  2**2
                  CONTENTS, ALLOC, LOAD, DATA
  7 .bss          000005ec  20000060  10005c3c  00007060  2**3
                  ALLOC
  8 .ps_data      00000000  11000000  11000000  00007060  2**0
                  CONTENTS
  9 .ps_bss       00000000  11000000  11000000  00007060  2**0
                  CONTENTS
 10 .ps_noload    00000000  11000000  11000000  00007060  2**0
                  CONTENTS
 11 .ARM.attributes 00000034  00000000  00000000  00007060  2**0
                  CONTENTS, READONLY
 12 .comment      00000045  00000000  00000000  00007094  2**0
                  CONTENTS, READONLY
 13 .debug_line_str 000002c2  00000000  00000000  000070d9  2**0
                  CONTENTS, READONLY, DEBUGGING, OCTETS
 14 .debug_frame  000006f0  00000000  00000000  0000739c  2**2
                  CONTENTS, READONLY, DEBUGGING, OCTETS

/Users/zakaria/Documents/Mikrocontrollertechnik/Project/firmware/face_demo/build/face_demo.elf:     file format elf32-littlearm


Disassembly of section .text:

10000000 <isr_vector>:
10000000:	00 00 08 20 09 01 00 10 e9 30 00 10 e9 30 00 10     ... .....0...0..
10000010:	e9 30 00 10 e9 30 00 10 e9 30 00 10 e9 30 00 10     .0...0...0...0..
	...
1000002c:	9d 2f 00 10 e9 30 00 10 00 00 00 00 61 2f 00 10     ./...0......a/..
1000003c:	25 2f 00 10 e9 30 00 10 e9 30 00 10 e9 30 00 10     %/...0...0...0..
1000004c:	e9 30 00 10 e9 30 00 10 e9 30 00 10 e9 30 00 10     .0...0...0...0..
1000005c:	e9 30 00 10 e9 30 00 10 e9 30 00 10 e9 30 00 10     .0...0...0...0..
1000006c:	e9 30 00 10 e9 30 00 10 e9 30 00 10 e9 30 00 10     .0...0...0...0..
1000007c:	e9 30 00 10 e9 30 00 10 e9 30 00 10 e9 30 00 10     .0...0...0...0..
1000008c:	e9 30 00 10 e9 30 00 10 99 1d 00 10 e9 30 00 10     .0...0.......0..
1000009c:	e9 30 00 10 e9 30 00 10 e9 30 00 10 e9 30 00 10     .0...0...0...0..
100000ac:	e9 30 00 10 e9 30 00 10 e9 30 00 10 e9 30 00 10     .0...0...0...0..
100000bc:	f1 25 00 10 1d 26 00 10 e9 30 00 10 e9 30 00 10     .%...&...0...0..
100000cc:	e9 30 00 10 e9 30 00 10 e9 30 00 10 e9 30 00 10     .0...0...0...0..
100000dc:	e9 30 00 10 e9 30 00 10 e9 30 00 10 e9 30 00 10     .0...0...0...0..
100000ec:	e9 30 00 10 00 00 00 00 00 00 00 00 00 00 00 00     .0..............
100000fc:	00 00 00 00 00 00 08 20 09 01 00 10                 ....... ....

10000108 <reset_handler>:
10000108:	f04f 0500 	mov.w	r5, #0
1000010c:	4814      	ldr	r0, [pc, #80]	@ (10000160 <_elf_entry_point+0x12>)
1000010e:	f04f 0119 	mov.w	r1, #25
10000112:	f840 1025 	str.w	r1, [r0, r5, lsl #2]
10000116:	4813      	ldr	r0, [pc, #76]	@ (10000164 <_elf_entry_point+0x16>)
10000118:	f04f 0109 	mov.w	r1, #9
1000011c:	f840 1035 	str.w	r1, [r0, r5, lsl #3]
10000120:	4811      	ldr	r0, [pc, #68]	@ (10000168 <_elf_entry_point+0x1a>)
10000122:	6801      	ldr	r1, [r0, #0]
10000124:	f441 6100 	orr.w	r1, r1, #2048	@ 0x800
10000128:	6001      	str	r1, [r0, #0]
1000012a:	4810      	ldr	r0, [pc, #64]	@ (1000016c <_elf_entry_point+0x1e>)
1000012c:	4910      	ldr	r1, [pc, #64]	@ (10000170 <_elf_entry_point+0x22>)
1000012e:	4288      	cmp	r0, r1
10000130:	d004      	beq.n	1000013c <no_copy>

10000132 <copy_loop>:
10000132:	4a10      	ldr	r2, [pc, #64]	@ (10000174 <_elf_entry_point+0x26>)
10000134:	c808      	ldmia	r0!, {r3}
10000136:	c108      	stmia	r1!, {r3}
10000138:	4291      	cmp	r1, r2
1000013a:	d3fa      	bcc.n	10000132 <copy_loop>

1000013c <no_copy>:
1000013c:	480e      	ldr	r0, [pc, #56]	@ (10000178 <_elf_entry_point+0x2a>)
1000013e:	f380 8808 	msr	MSP, r0
10000142:	480e      	ldr	r0, [pc, #56]	@ (1000017c <_elf_entry_point+0x2e>)
10000144:	490e      	ldr	r1, [pc, #56]	@ (10000180 <_elf_entry_point+0x32>)
10000146:	6008      	str	r0, [r1, #0]
10000148:	480e      	ldr	r0, [pc, #56]	@ (10000184 <_elf_entry_point+0x36>)
1000014a:	4780      	blx	r0

1000014c <endless>:
1000014c:	e7fe      	b.n	1000014c <endless>

1000014e <_elf_entry_point>:
1000014e:	2000      	movs	r0, #0
10000150:	490b      	ldr	r1, [pc, #44]	@ (10000180 <_elf_entry_point+0x32>)
10000152:	6008      	str	r0, [r1, #0]
10000154:	c806      	ldmia	r0!, {r1, r2}
10000156:	f381 8808 	msr	MSP, r1
1000015a:	4790      	blx	r2
1000015c:	e7f6      	b.n	1000014c <endless>
1000015e:	0000      	.short	0x0000
10000160:	40038004 	.word	0x40038004
10000164:	40028004 	.word	0x40028004
10000168:	400c8000 	.word	0x400c8000
1000016c:	10000000 	.word	0x10000000
10000170:	10000000 	.word	0x10000000
10000174:	20000060 	.word	0x20000060
10000178:	20080000 	.word	0x20080000
1000017c:	10000000 	.word	0x10000000
10000180:	e000ed08 	.word	0xe000ed08
10000184:	100030ed 	.word	0x100030ed

10000188 <boot_blocks>:
10000188:	ffffded3 10210142 000001ff 00000000     ....B.!.........
10000198:	ab123579                                y5..

1000019c <deregister_tm_clones>:
1000019c:	4803      	ldr	r0, [pc, #12]	@ (100001ac <deregister_tm_clones+0x10>)
1000019e:	4b04      	ldr	r3, [pc, #16]	@ (100001b0 <deregister_tm_clones+0x14>)
100001a0:	4283      	cmp	r3, r0
100001a2:	d002      	beq.n	100001aa <deregister_tm_clones+0xe>
100001a4:	4b03      	ldr	r3, [pc, #12]	@ (100001b4 <deregister_tm_clones+0x18>)
100001a6:	b103      	cbz	r3, 100001aa <deregister_tm_clones+0xe>
100001a8:	4718      	bx	r3
100001aa:	4770      	bx	lr
100001ac:	20000060 	.word	0x20000060
100001b0:	20000060 	.word	0x20000060
100001b4:	00000000 	.word	0x00000000

100001b8 <register_tm_clones>:
100001b8:	4b06      	ldr	r3, [pc, #24]	@ (100001d4 <register_tm_clones+0x1c>)
100001ba:	4907      	ldr	r1, [pc, #28]	@ (100001d8 <register_tm_clones+0x20>)
100001bc:	1ac9      	subs	r1, r1, r3
100001be:	1089      	asrs	r1, r1, #2
100001c0:	bf48      	it	mi
100001c2:	3101      	addmi	r1, #1
100001c4:	1049      	asrs	r1, r1, #1
100001c6:	d003      	beq.n	100001d0 <register_tm_clones+0x18>
100001c8:	4b04      	ldr	r3, [pc, #16]	@ (100001dc <register_tm_clones+0x24>)
100001ca:	b10b      	cbz	r3, 100001d0 <register_tm_clones+0x18>
100001cc:	4801      	ldr	r0, [pc, #4]	@ (100001d4 <register_tm_clones+0x1c>)
100001ce:	4718      	bx	r3
100001d0:	4770      	bx	lr
100001d2:	bf00      	nop
100001d4:	20000060 	.word	0x20000060
100001d8:	20000060 	.word	0x20000060
100001dc:	00000000 	.word	0x00000000

100001e0 <__do_global_dtors_aux>:
100001e0:	b510      	push	{r4, lr}
100001e2:	4c06      	ldr	r4, [pc, #24]	@ (100001fc <__do_global_dtors_aux+0x1c>)
100001e4:	7823      	ldrb	r3, [r4, #0]
100001e6:	b943      	cbnz	r3, 100001fa <__do_global_dtors_aux+0x1a>
100001e8:	f7ff ffd8 	bl	1000019c <deregister_tm_clones>
100001ec:	4b04      	ldr	r3, [pc, #16]	@ (10000200 <__do_global_dtors_aux+0x20>)
100001ee:	b113      	cbz	r3, 100001f6 <__do_global_dtors_aux+0x16>
100001f0:	4804      	ldr	r0, [pc, #16]	@ (10000204 <__do_global_dtors_aux+0x24>)
100001f2:	f3af 8000 	nop.w
100001f6:	2301      	movs	r3, #1
100001f8:	7023      	strb	r3, [r4, #0]
100001fa:	bd10      	pop	{r4, pc}
100001fc:	20000649 	.word	0x20000649
10000200:	00000000 	.word	0x00000000
10000204:	10005bb4 	.word	0x10005bb4

10000208 <frame_dummy>:
10000208:	b508      	push	{r3, lr}
1000020a:	4b05      	ldr	r3, [pc, #20]	@ (10000220 <frame_dummy+0x18>)
1000020c:	b11b      	cbz	r3, 10000216 <frame_dummy+0xe>
1000020e:	4905      	ldr	r1, [pc, #20]	@ (10000224 <frame_dummy+0x1c>)
10000210:	4805      	ldr	r0, [pc, #20]	@ (10000228 <frame_dummy+0x20>)
10000212:	f3af 8000 	nop.w
10000216:	e8bd 4008 	ldmia.w	sp!, {r3, lr}
1000021a:	f7ff bfcd 	b.w	100001b8 <register_tm_clones>
1000021e:	bf00      	nop
10000220:	00000000 	.word	0x00000000
10000224:	20000624 	.word	0x20000624
10000228:	10005bb4 	.word	0x10005bb4

1000022c <main>:
1000022c:	e92d 41f0 	stmdb	sp!, {r4, r5, r6, r7, r8, lr}
10000230:	f5ad 7d08 	sub.w	sp, sp, #544	@ 0x220
10000234:	2118      	movs	r1, #24
10000236:	a805      	add	r0, sp, #20
10000238:	f001 fc4c 	bl	10001ad4 <gpio_rp2350::gpio_rp2350(unsigned short)>
1000023c:	ac09      	add	r4, sp, #36	@ 0x24
1000023e:	f44f 7181 	mov.w	r1, #258	@ 0x102
10000242:	a805      	add	r0, sp, #20
10000244:	f001 fd70 	bl	10001d28 <gpio_rp2350::gpioMode(unsigned short)>
10000248:	210d      	movs	r1, #13
1000024a:	4620      	mov	r0, r4
1000024c:	f001 fc42 	bl	10001ad4 <gpio_rp2350::gpio_rp2350(unsigned short)>
10000250:	2507      	movs	r5, #7
10000252:	2001      	movs	r0, #1
10000254:	e9cd 0501 	strd	r0, r5, [sp, #4]
10000258:	2500      	movs	r5, #0
1000025a:	231e      	movs	r3, #30
1000025c:	220b      	movs	r2, #11
1000025e:	210c      	movs	r1, #12
10000260:	9400      	str	r4, [sp, #0]
10000262:	a82c      	add	r0, sp, #176	@ 0xb0
10000264:	f001 fee8 	bl	10002038 <spi_rp2350::spi_rp2350(unsigned short, unsigned short, unsigned short, gpio_interface&, bool, unsigned short)>
10000268:	4921      	ldr	r1, [pc, #132]	@ (100002f0 <main+0xc4>)
1000026a:	a82c      	add	r0, sp, #176	@ 0xb0
1000026c:	f002 f976 	bl	1000255c <spi_rp2350::setSpeed(unsigned long)>
10000270:	2113      	movs	r1, #19
10000272:	a80d      	add	r0, sp, #52	@ 0x34
10000274:	f001 fc2e 	bl	10001ad4 <gpio_rp2350::gpio_rp2350(unsigned short)>
10000278:	2102      	movs	r1, #2
1000027a:	a811      	add	r0, sp, #68	@ 0x44
1000027c:	f001 fc2a 	bl	10001ad4 <gpio_rp2350::gpio_rp2350(unsigned short)>
10000280:	4b1c      	ldr	r3, [pc, #112]	@ (100002f4 <main+0xc8>)
10000282:	aa0d      	add	r2, sp, #52	@ 0x34
10000284:	9300      	str	r3, [sp, #0]
10000286:	a92c      	add	r1, sp, #176	@ 0xb0
10000288:	ab11      	add	r3, sp, #68	@ 0x44
1000028a:	9501      	str	r5, [sp, #4]
1000028c:	a841      	add	r0, sp, #260	@ 0x104
1000028e:	f000 fd0f 	bl	10000cb0 <st7735s_drv::st7735s_drv(spi_interface&, gpio_interface&, gpio_interface&, st7735s_drv::config&, mutex_interface*)>
10000292:	a941      	add	r1, sp, #260	@ 0x104
10000294:	a819      	add	r0, sp, #100	@ 0x64
10000296:	f003 f813 	bl	100032c0 <uGUI::uGUI(lcd_interface&)>
1000029a:	a919      	add	r1, sp, #100	@ 0x64
1000029c:	a815      	add	r0, sp, #84	@ 0x54
1000029e:	f000 f82f 	bl	10000300 <Face::Face(uGUI&)>
100002a2:	a815      	add	r0, sp, #84	@ 0x54
100002a4:	f000 fbc8 	bl	10000a38 <Face::begin()>
100002a8:	46a8      	mov	r8, r5
100002aa:	4e13      	ldr	r6, [pc, #76]	@ (100002f8 <main+0xcc>)
100002ac:	4f13      	ldr	r7, [pc, #76]	@ (100002fc <main+0xd0>)
100002ae:	f108 0301 	add.w	r3, r8, #1
100002b2:	17dc      	asrs	r4, r3, #31
100002b4:	b9a5      	cbnz	r5, 100002e0 <main+0xb4>
100002b6:	fb87 1203 	smull	r1, r2, r7, r3
100002ba:	441a      	add	r2, r3
100002bc:	ebc4 04e2 	rsb	r4, r4, r2, asr #3
100002c0:	ebc4 1404 	rsb	r4, r4, r4, lsl #4
100002c4:	1b1c      	subs	r4, r3, r4
100002c6:	f816 1038 	ldrb.w	r1, [r6, r8, lsl #3]
100002ca:	eb06 05c8 	add.w	r5, r6, r8, lsl #3
100002ce:	46a0      	mov	r8, r4
100002d0:	a815      	add	r0, sp, #84	@ 0x54
100002d2:	f000 f827 	bl	10000324 <Face::setState(Face::State)>
100002d6:	7869      	ldrb	r1, [r5, #1]
100002d8:	a815      	add	r0, sp, #84	@ 0x54
100002da:	f000 f81b 	bl	10000314 <Face::setMood(Face::Mood)>
100002de:	686d      	ldr	r5, [r5, #4]
100002e0:	a815      	add	r0, sp, #84	@ 0x54
100002e2:	f000 fbd3 	bl	10000a8c <Face::tick()>
100002e6:	2050      	movs	r0, #80	@ 0x50
100002e8:	3d01      	subs	r5, #1
100002ea:	f002 fca9 	bl	10002c40 <task::sleep_ms(unsigned long)>
100002ee:	e7de      	b.n	100002ae <main+0x82>
100002f0:	016e3600 	.word	0x016e3600
100002f4:	200004b4 	.word	0x200004b4
100002f8:	100045e8 	.word	0x100045e8
100002fc:	88888889 	.word	0x88888889

10000300 <Face::Face(uGUI&)>:
10000300:	2200      	movs	r2, #0
10000302:	f04f 0c01 	mov.w	ip, #1
10000306:	6001      	str	r1, [r0, #0]
10000308:	8082      	strh	r2, [r0, #4]
1000030a:	6082      	str	r2, [r0, #8]
1000030c:	f880 c00c 	strb.w	ip, [r0, #12]
10000310:	4770      	bx	lr
10000312:	bf00      	nop

10000314 <Face::setMood(Face::Mood)>:
10000314:	7903      	ldrb	r3, [r0, #4]
10000316:	428b      	cmp	r3, r1
10000318:	d002      	beq.n	10000320 <Face::setMood(Face::Mood)+0xc>
1000031a:	2301      	movs	r3, #1
1000031c:	7101      	strb	r1, [r0, #4]
1000031e:	7303      	strb	r3, [r0, #12]
10000320:	4770      	bx	lr
10000322:	bf00      	nop

10000324 <Face::setState(Face::State)>:
10000324:	7943      	ldrb	r3, [r0, #5]
10000326:	428b      	cmp	r3, r1
10000328:	d002      	beq.n	10000330 <Face::setState(Face::State)+0xc>
1000032a:	2301      	movs	r3, #1
1000032c:	7141      	strb	r1, [r0, #5]
1000032e:	7303      	strb	r3, [r0, #12]
10000330:	4770      	bx	lr
10000332:	bf00      	nop

10000334 <Face::_drawHead()>:
10000334:	b5f0      	push	{r4, r5, r6, r7, lr}
10000336:	7903      	ldrb	r3, [r0, #4]
10000338:	2500      	movs	r5, #0
1000033a:	3b01      	subs	r3, #1
1000033c:	b2db      	uxtb	r3, r3
1000033e:	2b03      	cmp	r3, #3
10000340:	bf96      	itet	ls
10000342:	4a1d      	ldrls	r2, [pc, #116]	@ (100003b8 <Face::_drawHead()+0x84>)
10000344:	f64f 77ff 	movwhi	r7, #65535	@ 0xffff
10000348:	f852 7023 	ldrls.w	r7, [r2, r3, lsl #2]
1000034c:	220e      	movs	r2, #14
1000034e:	4604      	mov	r4, r0
10000350:	b085      	sub	sp, #20
10000352:	237f      	movs	r3, #127	@ 0x7f
10000354:	4629      	mov	r1, r5
10000356:	6800      	ldr	r0, [r0, #0]
10000358:	e9cd 2500 	strd	r2, r5, [sp]
1000035c:	462a      	mov	r2, r5
1000035e:	f003 f80d 	bl	1000337c <uGUI::FillFrame(short, short, short, short, unsigned long)>
10000362:	4639      	mov	r1, r7
10000364:	6820      	ldr	r0, [r4, #0]
10000366:	f003 fd1f 	bl	10003da8 <uGUI::SetForecolor(unsigned long)>
1000036a:	4629      	mov	r1, r5
1000036c:	6820      	ldr	r0, [r4, #0]
1000036e:	f003 fd1d 	bl	10003dac <uGUI::SetBackcolor(unsigned long)>
10000372:	6820      	ldr	r0, [r4, #0]
10000374:	4911      	ldr	r1, [pc, #68]	@ (100003bc <Face::_drawHead()+0x88>)
10000376:	f002 ffd3 	bl	10003320 <uGUI::FontSelect(uGUI::FONT const*)>
1000037a:	2001      	movs	r0, #1
1000037c:	260c      	movs	r6, #12
1000037e:	256e      	movs	r5, #110	@ 0x6e
10000380:	9000      	str	r0, [sp, #0]
10000382:	6820      	ldr	r0, [r4, #0]
10000384:	2202      	movs	r2, #2
10000386:	211c      	movs	r1, #28
10000388:	4b0d      	ldr	r3, [pc, #52]	@ (100003c0 <Face::_drawHead()+0x8c>)
1000038a:	f003 fccd 	bl	10003d28 <uGUI::PutString(short, short, char const*, bool)>
1000038e:	480d      	ldr	r0, [pc, #52]	@ (100003c4 <Face::_drawHead()+0x90>)
10000390:	9500      	str	r5, [sp, #0]
10000392:	e9cd 6001 	strd	r6, r0, [sp, #4]
10000396:	2379      	movs	r3, #121	@ 0x79
10000398:	6820      	ldr	r0, [r4, #0]
1000039a:	2210      	movs	r2, #16
1000039c:	2106      	movs	r1, #6
1000039e:	f003 f903 	bl	100035a8 <uGUI::FillRoundFrame(short, short, short, short, short, unsigned long)>
100003a2:	6820      	ldr	r0, [r4, #0]
100003a4:	2379      	movs	r3, #121	@ 0x79
100003a6:	2210      	movs	r2, #16
100003a8:	2106      	movs	r1, #6
100003aa:	e9cd 6701 	strd	r6, r7, [sp, #4]
100003ae:	9500      	str	r5, [sp, #0]
100003b0:	f003 f9a2 	bl	100036f8 <uGUI::DrawRoundFrame(short, short, short, short, short, unsigned long)>
100003b4:	b005      	add	sp, #20
100003b6:	bdf0      	pop	{r4, r5, r6, r7, pc}
100003b8:	100046a8 	.word	0x100046a8
100003bc:	10004fac 	.word	0x10004fac
100003c0:	10004668 	.word	0x10004668
100003c4:	000a1430 	.word	0x000a1430

100003c8 <Face::_drawEyes()>:
100003c8:	e92d 4ff0 	stmdb	sp!, {r4, r5, r6, r7, r8, r9, sl, fp, lr}
100003cc:	7901      	ldrb	r1, [r0, #4]
100003ce:	4604      	mov	r4, r0
100003d0:	1e4b      	subs	r3, r1, #1
100003d2:	b2db      	uxtb	r3, r3
100003d4:	2b03      	cmp	r3, #3
100003d6:	7942      	ldrb	r2, [r0, #5]
100003d8:	f8d0 a000 	ldr.w	sl, [r0]
100003dc:	b085      	sub	sp, #20
100003de:	d833      	bhi.n	10000448 <Face::_drawEyes()+0x80>
100003e0:	4dc1      	ldr	r5, [pc, #772]	@ (100006e8 <Face::_drawEyes()+0x320>)
100003e2:	2a01      	cmp	r2, #1
100003e4:	f855 7023 	ldr.w	r7, [r5, r3, lsl #2]
100003e8:	d017      	beq.n	1000041a <Face::_drawEyes()+0x52>
100003ea:	2a02      	cmp	r2, #2
100003ec:	f000 80ea 	beq.w	100005c4 <Face::_drawEyes()+0x1fc>
100003f0:	2a00      	cmp	r2, #0
100003f2:	f000 8088 	beq.w	10000506 <Face::_drawEyes()+0x13e>
100003f6:	2902      	cmp	r1, #2
100003f8:	f000 8190 	beq.w	1000071c <Face::_drawEyes()+0x354>
100003fc:	2904      	cmp	r1, #4
100003fe:	f000 81a0 	beq.w	10000742 <Face::_drawEyes()+0x37a>
10000402:	232a      	movs	r3, #42	@ 0x2a
10000404:	9303      	str	r3, [sp, #12]
10000406:	2352      	movs	r3, #82	@ 0x52
10000408:	f04f 0b32 	mov.w	fp, #50	@ 0x32
1000040c:	2534      	movs	r5, #52	@ 0x34
1000040e:	f04f 092c 	mov.w	r9, #44	@ 0x2c
10000412:	f04f 0854 	mov.w	r8, #84	@ 0x54
10000416:	9302      	str	r3, [sp, #8]
10000418:	e02c      	b.n	10000474 <Face::_drawEyes()+0xac>
1000041a:	6882      	ldr	r2, [r0, #8]
1000041c:	0710      	lsls	r0, r2, #28
1000041e:	f002 030f 	and.w	r3, r2, #15
10000422:	f140 8099 	bpl.w	10000558 <Face::_drawEyes()+0x190>
10000426:	f1c3 0236 	rsb	r2, r3, #54	@ 0x36
1000042a:	f1c3 0938 	rsb	r9, r3, #56	@ 0x38
1000042e:	f1c3 0860 	rsb	r8, r3, #96	@ 0x60
10000432:	2902      	cmp	r1, #2
10000434:	f1c3 035e 	rsb	r3, r3, #94	@ 0x5e
10000438:	9203      	str	r2, [sp, #12]
1000043a:	9302      	str	r3, [sp, #8]
1000043c:	f040 817a 	bne.w	10000734 <Face::_drawEyes()+0x36c>
10000440:	f04f 0b35 	mov.w	fp, #53	@ 0x35
10000444:	2537      	movs	r5, #55	@ 0x37
10000446:	e015      	b.n	10000474 <Face::_drawEyes()+0xac>
10000448:	2a01      	cmp	r2, #1
1000044a:	f000 80f2 	beq.w	10000632 <Face::_drawEyes()+0x26a>
1000044e:	2a02      	cmp	r2, #2
10000450:	f000 8097 	beq.w	10000582 <Face::_drawEyes()+0x1ba>
10000454:	2a00      	cmp	r2, #0
10000456:	f000 812b 	beq.w	100006b0 <Face::_drawEyes()+0x2e8>
1000045a:	232a      	movs	r3, #42	@ 0x2a
1000045c:	9303      	str	r3, [sp, #12]
1000045e:	2352      	movs	r3, #82	@ 0x52
10000460:	f04f 0b32 	mov.w	fp, #50	@ 0x32
10000464:	2534      	movs	r5, #52	@ 0x34
10000466:	f04f 092c 	mov.w	r9, #44	@ 0x2c
1000046a:	f04f 0854 	mov.w	r8, #84	@ 0x54
1000046e:	f64f 77ff 	movw	r7, #65535	@ 0xffff
10000472:	9302      	str	r3, [sp, #8]
10000474:	f06f 467f 	mvn.w	r6, #4278190080	@ 0xff000000
10000478:	230f      	movs	r3, #15
1000047a:	2234      	movs	r2, #52	@ 0x34
1000047c:	212c      	movs	r1, #44	@ 0x2c
1000047e:	4650      	mov	r0, sl
10000480:	9600      	str	r6, [sp, #0]
10000482:	f003 faf1 	bl	10003a68 <uGUI::FillCircle(short, short, short, unsigned long)>
10000486:	4649      	mov	r1, r9
10000488:	2308      	movs	r3, #8
1000048a:	462a      	mov	r2, r5
1000048c:	4650      	mov	r0, sl
1000048e:	9700      	str	r7, [sp, #0]
10000490:	f003 faea 	bl	10003a68 <uGUI::FillCircle(short, short, short, unsigned long)>
10000494:	2200      	movs	r2, #0
10000496:	4649      	mov	r1, r9
10000498:	2304      	movs	r3, #4
1000049a:	4650      	mov	r0, sl
1000049c:	9200      	str	r2, [sp, #0]
1000049e:	462a      	mov	r2, r5
100004a0:	f003 fae2 	bl	10003a68 <uGUI::FillCircle(short, short, short, unsigned long)>
100004a4:	4633      	mov	r3, r6
100004a6:	465a      	mov	r2, fp
100004a8:	4650      	mov	r0, sl
100004aa:	9903      	ldr	r1, [sp, #12]
100004ac:	f002 ff84 	bl	100033b8 <uGUI::DrawPixel(short, short, unsigned long)>
100004b0:	9600      	str	r6, [sp, #0]
100004b2:	f8d4 9000 	ldr.w	r9, [r4]
100004b6:	230f      	movs	r3, #15
100004b8:	2234      	movs	r2, #52	@ 0x34
100004ba:	2154      	movs	r1, #84	@ 0x54
100004bc:	4648      	mov	r0, r9
100004be:	f003 fad3 	bl	10003a68 <uGUI::FillCircle(short, short, short, unsigned long)>
100004c2:	2308      	movs	r3, #8
100004c4:	462a      	mov	r2, r5
100004c6:	4641      	mov	r1, r8
100004c8:	4648      	mov	r0, r9
100004ca:	9700      	str	r7, [sp, #0]
100004cc:	f003 facc 	bl	10003a68 <uGUI::FillCircle(short, short, short, unsigned long)>
100004d0:	2200      	movs	r2, #0
100004d2:	4641      	mov	r1, r8
100004d4:	2304      	movs	r3, #4
100004d6:	4648      	mov	r0, r9
100004d8:	9200      	str	r2, [sp, #0]
100004da:	462a      	mov	r2, r5
100004dc:	f003 fac4 	bl	10003a68 <uGUI::FillCircle(short, short, short, unsigned long)>
100004e0:	4633      	mov	r3, r6
100004e2:	465a      	mov	r2, fp
100004e4:	4648      	mov	r0, r9
100004e6:	9902      	ldr	r1, [sp, #8]
100004e8:	f002 ff66 	bl	100033b8 <uGUI::DrawPixel(short, short, unsigned long)>
100004ec:	7923      	ldrb	r3, [r4, #4]
100004ee:	2b03      	cmp	r3, #3
100004f0:	f000 808b 	beq.w	1000060a <Face::_drawEyes()+0x242>
100004f4:	2b02      	cmp	r3, #2
100004f6:	f000 80b8 	beq.w	1000066a <Face::_drawEyes()+0x2a2>
100004fa:	2b04      	cmp	r3, #4
100004fc:	f000 80c7 	beq.w	1000068e <Face::_drawEyes()+0x2c6>
10000500:	b005      	add	sp, #20
10000502:	e8bd 8ff0 	ldmia.w	sp!, {r4, r5, r6, r7, r8, r9, sl, fp, pc}
10000506:	6883      	ldr	r3, [r0, #8]
10000508:	4d78      	ldr	r5, [pc, #480]	@ (100006ec <Face::_drawEyes()+0x324>)
1000050a:	089a      	lsrs	r2, r3, #2
1000050c:	fba5 5202 	umull	r5, r2, r5, r2
10000510:	ebc2 02c2 	rsb	r2, r2, r2, lsl #3
10000514:	eba3 0382 	sub.w	r3, r3, r2, lsl #2
10000518:	2b01      	cmp	r3, #1
1000051a:	bf8c      	ite	hi
1000051c:	2300      	movhi	r3, #0
1000051e:	2301      	movls	r3, #1
10000520:	2902      	cmp	r1, #2
10000522:	f040 80ae 	bne.w	10000682 <Face::_drawEyes()+0x2ba>
10000526:	2203      	movs	r2, #3
10000528:	2b00      	cmp	r3, #0
1000052a:	f000 8119 	beq.w	10000760 <Face::_drawEyes()+0x398>
1000052e:	2536      	movs	r5, #54	@ 0x36
10000530:	4e6f      	ldr	r6, [pc, #444]	@ (100006f0 <Face::_drawEyes()+0x328>)
10000532:	4650      	mov	r0, sl
10000534:	233b      	movs	r3, #59	@ 0x3b
10000536:	2232      	movs	r2, #50	@ 0x32
10000538:	211d      	movs	r1, #29
1000053a:	9601      	str	r6, [sp, #4]
1000053c:	9500      	str	r5, [sp, #0]
1000053e:	f002 ff1d 	bl	1000337c <uGUI::FillFrame(short, short, short, short, unsigned long)>
10000542:	6820      	ldr	r0, [r4, #0]
10000544:	2363      	movs	r3, #99	@ 0x63
10000546:	2232      	movs	r2, #50	@ 0x32
10000548:	2145      	movs	r1, #69	@ 0x45
1000054a:	e9cd 5600 	strd	r5, r6, [sp]
1000054e:	f002 ff15 	bl	1000337c <uGUI::FillFrame(short, short, short, short, unsigned long)>
10000552:	b005      	add	sp, #20
10000554:	e8bd 8ff0 	ldmia.w	sp!, {r4, r5, r6, r7, r8, r9, sl, fp, pc}
10000558:	f103 0026 	add.w	r0, r3, #38	@ 0x26
1000055c:	b29a      	uxth	r2, r3
1000055e:	f103 0928 	add.w	r9, r3, #40	@ 0x28
10000562:	f103 0850 	add.w	r8, r3, #80	@ 0x50
10000566:	2902      	cmp	r1, #2
10000568:	f103 034e 	add.w	r3, r3, #78	@ 0x4e
1000056c:	9003      	str	r0, [sp, #12]
1000056e:	9302      	str	r3, [sp, #8]
10000570:	f43f af66 	beq.w	10000440 <Face::_drawEyes()+0x78>
10000574:	2904      	cmp	r1, #4
10000576:	f040 80f0 	bne.w	1000075a <Face::_drawEyes()+0x392>
1000057a:	f04f 0b30 	mov.w	fp, #48	@ 0x30
1000057e:	2532      	movs	r5, #50	@ 0x32
10000580:	e778      	b.n	10000474 <Face::_drawEyes()+0xac>
10000582:	f64f 77ff 	movw	r7, #65535	@ 0xffff
10000586:	6883      	ldr	r3, [r0, #8]
10000588:	4a5a      	ldr	r2, [pc, #360]	@ (100006f4 <Face::_drawEyes()+0x32c>)
1000058a:	495b      	ldr	r1, [pc, #364]	@ (100006f8 <Face::_drawEyes()+0x330>)
1000058c:	f3c3 0342 	ubfx	r3, r3, #1, #3
10000590:	56d2      	ldrsb	r2, [r2, r3]
10000592:	56cb      	ldrsb	r3, [r1, r3]
10000594:	b292      	uxth	r2, r2
10000596:	b29b      	uxth	r3, r3
10000598:	f102 0854 	add.w	r8, r2, #84	@ 0x54
1000059c:	f102 0152 	add.w	r1, r2, #82	@ 0x52
100005a0:	f102 092c 	add.w	r9, r2, #44	@ 0x2c
100005a4:	322a      	adds	r2, #42	@ 0x2a
100005a6:	f103 0534 	add.w	r5, r3, #52	@ 0x34
100005aa:	b209      	sxth	r1, r1
100005ac:	b212      	sxth	r2, r2
100005ae:	3332      	adds	r3, #50	@ 0x32
100005b0:	fa0f f888 	sxth.w	r8, r8
100005b4:	9102      	str	r1, [sp, #8]
100005b6:	fa0f f989 	sxth.w	r9, r9
100005ba:	9203      	str	r2, [sp, #12]
100005bc:	b22d      	sxth	r5, r5
100005be:	fa0f fb83 	sxth.w	fp, r3
100005c2:	e757      	b.n	10000474 <Face::_drawEyes()+0xac>
100005c4:	6883      	ldr	r3, [r0, #8]
100005c6:	4a4b      	ldr	r2, [pc, #300]	@ (100006f4 <Face::_drawEyes()+0x32c>)
100005c8:	f3c3 0342 	ubfx	r3, r3, #1, #3
100005cc:	56d2      	ldrsb	r2, [r2, r3]
100005ce:	4d4a      	ldr	r5, [pc, #296]	@ (100006f8 <Face::_drawEyes()+0x330>)
100005d0:	2902      	cmp	r1, #2
100005d2:	56eb      	ldrsb	r3, [r5, r3]
100005d4:	b295      	uxth	r5, r2
100005d6:	f105 0b2a 	add.w	fp, r5, #42	@ 0x2a
100005da:	f105 092c 	add.w	r9, r5, #44	@ 0x2c
100005de:	fa0f f08b 	sxth.w	r0, fp
100005e2:	f105 0854 	add.w	r8, r5, #84	@ 0x54
100005e6:	f105 0552 	add.w	r5, r5, #82	@ 0x52
100005ea:	9003      	str	r0, [sp, #12]
100005ec:	b228      	sxth	r0, r5
100005ee:	fa0f f989 	sxth.w	r9, r9
100005f2:	fa0f f888 	sxth.w	r8, r8
100005f6:	9002      	str	r0, [sp, #8]
100005f8:	d16a      	bne.n	100006d0 <Face::_drawEyes()+0x308>
100005fa:	b29b      	uxth	r3, r3
100005fc:	f103 0537 	add.w	r5, r3, #55	@ 0x37
10000600:	3335      	adds	r3, #53	@ 0x35
10000602:	b22d      	sxth	r5, r5
10000604:	fa0f fb83 	sxth.w	fp, r3
10000608:	e734      	b.n	10000474 <Face::_drawEyes()+0xac>
1000060a:	2527      	movs	r5, #39	@ 0x27
1000060c:	9701      	str	r7, [sp, #4]
1000060e:	2334      	movs	r3, #52	@ 0x34
10000610:	2220      	movs	r2, #32
10000612:	6820      	ldr	r0, [r4, #0]
10000614:	211e      	movs	r1, #30
10000616:	9500      	str	r5, [sp, #0]
10000618:	f002 fed8 	bl	100033cc <uGUI::DrawLine(short, short, short, short, unsigned long)>
1000061c:	234c      	movs	r3, #76	@ 0x4c
1000061e:	2220      	movs	r2, #32
10000620:	6820      	ldr	r0, [r4, #0]
10000622:	2162      	movs	r1, #98	@ 0x62
10000624:	e9cd 5700 	strd	r5, r7, [sp]
10000628:	f002 fed0 	bl	100033cc <uGUI::DrawLine(short, short, short, short, unsigned long)>
1000062c:	b005      	add	sp, #20
1000062e:	e8bd 8ff0 	ldmia.w	sp!, {r4, r5, r6, r7, r8, r9, sl, fp, pc}
10000632:	6882      	ldr	r2, [r0, #8]
10000634:	f002 030f 	and.w	r3, r2, #15
10000638:	0712      	lsls	r2, r2, #28
1000063a:	d45f      	bmi.n	100006fc <Face::_drawEyes()+0x334>
1000063c:	f64f 77ff 	movw	r7, #65535	@ 0xffff
10000640:	3b04      	subs	r3, #4
10000642:	b29b      	uxth	r3, r3
10000644:	f103 0854 	add.w	r8, r3, #84	@ 0x54
10000648:	f103 0252 	add.w	r2, r3, #82	@ 0x52
1000064c:	f103 092c 	add.w	r9, r3, #44	@ 0x2c
10000650:	332a      	adds	r3, #42	@ 0x2a
10000652:	b212      	sxth	r2, r2
10000654:	b21b      	sxth	r3, r3
10000656:	f04f 0b32 	mov.w	fp, #50	@ 0x32
1000065a:	2534      	movs	r5, #52	@ 0x34
1000065c:	fa0f f888 	sxth.w	r8, r8
10000660:	9202      	str	r2, [sp, #8]
10000662:	fa0f f989 	sxth.w	r9, r9
10000666:	9303      	str	r3, [sp, #12]
10000668:	e704      	b.n	10000474 <Face::_drawEyes()+0xac>
1000066a:	2520      	movs	r5, #32
1000066c:	9701      	str	r7, [sp, #4]
1000066e:	2334      	movs	r3, #52	@ 0x34
10000670:	2227      	movs	r2, #39	@ 0x27
10000672:	6820      	ldr	r0, [r4, #0]
10000674:	211e      	movs	r1, #30
10000676:	9500      	str	r5, [sp, #0]
10000678:	f002 fea8 	bl	100033cc <uGUI::DrawLine(short, short, short, short, unsigned long)>
1000067c:	234c      	movs	r3, #76	@ 0x4c
1000067e:	2227      	movs	r2, #39	@ 0x27
10000680:	e7ce      	b.n	10000620 <Face::_drawEyes()+0x258>
10000682:	2904      	cmp	r1, #4
10000684:	bf0c      	ite	eq
10000686:	f06f 0201 	mvneq.w	r2, #1
1000068a:	2200      	movne	r2, #0
1000068c:	e74c      	b.n	10000528 <Face::_drawEyes()+0x160>
1000068e:	2222      	movs	r2, #34	@ 0x22
10000690:	9701      	str	r7, [sp, #4]
10000692:	6820      	ldr	r0, [r4, #0]
10000694:	2336      	movs	r3, #54	@ 0x36
10000696:	9200      	str	r2, [sp, #0]
10000698:	2120      	movs	r1, #32
1000069a:	f002 fe97 	bl	100033cc <uGUI::DrawLine(short, short, short, short, unsigned long)>
1000069e:	221c      	movs	r2, #28
100006a0:	6820      	ldr	r0, [r4, #0]
100006a2:	2360      	movs	r3, #96	@ 0x60
100006a4:	214a      	movs	r1, #74	@ 0x4a
100006a6:	e9cd 2700 	strd	r2, r7, [sp]
100006aa:	f002 fe8f 	bl	100033cc <uGUI::DrawLine(short, short, short, short, unsigned long)>
100006ae:	e727      	b.n	10000500 <Face::_drawEyes()+0x138>
100006b0:	6883      	ldr	r3, [r0, #8]
100006b2:	4d0e      	ldr	r5, [pc, #56]	@ (100006ec <Face::_drawEyes()+0x324>)
100006b4:	0899      	lsrs	r1, r3, #2
100006b6:	fba5 5101 	umull	r5, r1, r5, r1
100006ba:	ebc1 01c1 	rsb	r1, r1, r1, lsl #3
100006be:	eba3 0381 	sub.w	r3, r3, r1, lsl #2
100006c2:	2b01      	cmp	r3, #1
100006c4:	bf8c      	ite	hi
100006c6:	2300      	movhi	r3, #0
100006c8:	2301      	movls	r3, #1
100006ca:	f64f 77ff 	movw	r7, #65535	@ 0xffff
100006ce:	e72b      	b.n	10000528 <Face::_drawEyes()+0x160>
100006d0:	2904      	cmp	r1, #4
100006d2:	f47f af5f 	bne.w	10000594 <Face::_drawEyes()+0x1cc>
100006d6:	b29b      	uxth	r3, r3
100006d8:	f103 0532 	add.w	r5, r3, #50	@ 0x32
100006dc:	3330      	adds	r3, #48	@ 0x30
100006de:	b22d      	sxth	r5, r5
100006e0:	fa0f fb83 	sxth.w	fp, r3
100006e4:	e6c6      	b.n	10000474 <Face::_drawEyes()+0xac>
100006e6:	bf00      	nop
100006e8:	100046a8 	.word	0x100046a8
100006ec:	24924925 	.word	0x24924925
100006f0:	00808080 	.word	0x00808080
100006f4:	100046c8 	.word	0x100046c8
100006f8:	100046c0 	.word	0x100046c0
100006fc:	f1c3 0236 	rsb	r2, r3, #54	@ 0x36
10000700:	f1c3 0938 	rsb	r9, r3, #56	@ 0x38
10000704:	f1c3 0860 	rsb	r8, r3, #96	@ 0x60
10000708:	f1c3 035e 	rsb	r3, r3, #94	@ 0x5e
1000070c:	f04f 0b32 	mov.w	fp, #50	@ 0x32
10000710:	2534      	movs	r5, #52	@ 0x34
10000712:	f64f 77ff 	movw	r7, #65535	@ 0xffff
10000716:	9203      	str	r2, [sp, #12]
10000718:	9302      	str	r3, [sp, #8]
1000071a:	e6ab      	b.n	10000474 <Face::_drawEyes()+0xac>
1000071c:	232a      	movs	r3, #42	@ 0x2a
1000071e:	9303      	str	r3, [sp, #12]
10000720:	2352      	movs	r3, #82	@ 0x52
10000722:	f04f 0b35 	mov.w	fp, #53	@ 0x35
10000726:	2537      	movs	r5, #55	@ 0x37
10000728:	f04f 092c 	mov.w	r9, #44	@ 0x2c
1000072c:	f04f 0854 	mov.w	r8, #84	@ 0x54
10000730:	9302      	str	r3, [sp, #8]
10000732:	e69f      	b.n	10000474 <Face::_drawEyes()+0xac>
10000734:	2904      	cmp	r1, #4
10000736:	f43f af20 	beq.w	1000057a <Face::_drawEyes()+0x1b2>
1000073a:	f04f 0b32 	mov.w	fp, #50	@ 0x32
1000073e:	2534      	movs	r5, #52	@ 0x34
10000740:	e698      	b.n	10000474 <Face::_drawEyes()+0xac>
10000742:	232a      	movs	r3, #42	@ 0x2a
10000744:	9303      	str	r3, [sp, #12]
10000746:	2352      	movs	r3, #82	@ 0x52
10000748:	f04f 0b30 	mov.w	fp, #48	@ 0x30
1000074c:	2532      	movs	r5, #50	@ 0x32
1000074e:	f04f 092c 	mov.w	r9, #44	@ 0x2c
10000752:	f04f 0854 	mov.w	r8, #84	@ 0x54
10000756:	9302      	str	r3, [sp, #8]
10000758:	e68c      	b.n	10000474 <Face::_drawEyes()+0xac>
1000075a:	1f13      	subs	r3, r2, #4
1000075c:	b29b      	uxth	r3, r3
1000075e:	e771      	b.n	10000644 <Face::_drawEyes()+0x27c>
10000760:	232a      	movs	r3, #42	@ 0x2a
10000762:	9303      	str	r3, [sp, #12]
10000764:	2352      	movs	r3, #82	@ 0x52
10000766:	b292      	uxth	r2, r2
10000768:	f102 0534 	add.w	r5, r2, #52	@ 0x34
1000076c:	3232      	adds	r2, #50	@ 0x32
1000076e:	f04f 092c 	mov.w	r9, #44	@ 0x2c
10000772:	f04f 0854 	mov.w	r8, #84	@ 0x54
10000776:	b22d      	sxth	r5, r5
10000778:	fa0f fb82 	sxth.w	fp, r2
1000077c:	9302      	str	r3, [sp, #8]
1000077e:	e679      	b.n	10000474 <Face::_drawEyes()+0xac>

10000780 <Face::_drawMouth()>:
10000780:	e92d 4ff0 	stmdb	sp!, {r4, r5, r6, r7, r8, r9, sl, fp, lr}
10000784:	4606      	mov	r6, r0
10000786:	7904      	ldrb	r4, [r0, #4]
10000788:	7972      	ldrb	r2, [r6, #5]
1000078a:	1e63      	subs	r3, r4, #1
1000078c:	b2db      	uxtb	r3, r3
1000078e:	2b03      	cmp	r3, #3
10000790:	6800      	ldr	r0, [r0, #0]
10000792:	b085      	sub	sp, #20
10000794:	d846      	bhi.n	10000824 <Face::_drawMouth()+0xa4>
10000796:	4983      	ldr	r1, [pc, #524]	@ (100009a4 <Face::_drawMouth()+0x224>)
10000798:	2a03      	cmp	r2, #3
1000079a:	f851 8023 	ldr.w	r8, [r1, r3, lsl #2]
1000079e:	f000 80bd 	beq.w	1000091c <Face::_drawMouth()+0x19c>
100007a2:	2a02      	cmp	r2, #2
100007a4:	d052      	beq.n	1000084c <Face::_drawMouth()+0xcc>
100007a6:	2c04      	cmp	r4, #4
100007a8:	f000 80ec 	beq.w	10000984 <Face::_drawMouth()+0x204>
100007ac:	2c03      	cmp	r4, #3
100007ae:	f000 80a5 	beq.w	100008fc <Face::_drawMouth()+0x17c>
100007b2:	2c01      	cmp	r4, #1
100007b4:	f040 809f 	bne.w	100008f6 <Face::_drawMouth()+0x176>
100007b8:	2500      	movs	r5, #0
100007ba:	f04f 0964 	mov.w	r9, #100	@ 0x64
100007be:	f8df b1f4 	ldr.w	fp, [pc, #500]	@ 100009b4 <Face::_drawMouth()+0x234>
100007c2:	4f79      	ldr	r7, [pc, #484]	@ (100009a8 <Face::_drawMouth()+0x228>)
100007c4:	e000      	b.n	100007c8 <Face::_drawMouth()+0x48>
100007c6:	6830      	ldr	r0, [r6, #0]
100007c8:	f242 7210 	movw	r2, #10000	@ 0x2710
100007cc:	fb09 f405 	mul.w	r4, r9, r5
100007d0:	f5a4 6416 	sub.w	r4, r4, #2400	@ 0x960
100007d4:	fb8b 1c04 	smull	r1, ip, fp, r4
100007d8:	17e4      	asrs	r4, r4, #31
100007da:	ebc4 04ac 	rsb	r4, r4, ip, asr #2
100007de:	fb04 2414 	mls	r4, r4, r4, r2
100007e2:	b224      	sxth	r4, r4
100007e4:	eb04 0444 	add.w	r4, r4, r4, lsl #1
100007e8:	00a4      	lsls	r4, r4, #2
100007ea:	fba7 2404 	umull	r2, r4, r7, r4
100007ee:	f105 0a28 	add.w	sl, r5, #40	@ 0x28
100007f2:	f3c4 344f 	ubfx	r4, r4, #13, #16
100007f6:	fa0f fa8a 	sxth.w	sl, sl
100007fa:	f104 0258 	add.w	r2, r4, #88	@ 0x58
100007fe:	4643      	mov	r3, r8
10000800:	4651      	mov	r1, sl
10000802:	b212      	sxth	r2, r2
10000804:	f002 fdd8 	bl	100033b8 <uGUI::DrawPixel(short, short, unsigned long)>
10000808:	f104 0259 	add.w	r2, r4, #89	@ 0x59
1000080c:	4643      	mov	r3, r8
1000080e:	4651      	mov	r1, sl
10000810:	6830      	ldr	r0, [r6, #0]
10000812:	b212      	sxth	r2, r2
10000814:	3501      	adds	r5, #1
10000816:	f002 fdcf 	bl	100033b8 <uGUI::DrawPixel(short, short, unsigned long)>
1000081a:	2d31      	cmp	r5, #49	@ 0x31
1000081c:	d1d3      	bne.n	100007c6 <Face::_drawMouth()+0x46>
1000081e:	b005      	add	sp, #20
10000820:	e8bd 8ff0 	ldmia.w	sp!, {r4, r5, r6, r7, r8, r9, sl, fp, pc}
10000824:	2a03      	cmp	r2, #3
10000826:	d077      	beq.n	10000918 <Face::_drawMouth()+0x198>
10000828:	2a02      	cmp	r2, #2
1000082a:	d00d      	beq.n	10000848 <Face::_drawMouth()+0xc8>
1000082c:	bb64      	cbnz	r4, 10000888 <Face::_drawMouth()+0x108>
1000082e:	f64f 75ff 	movw	r5, #65535	@ 0xffff
10000832:	2459      	movs	r4, #89	@ 0x59
10000834:	2358      	movs	r3, #88	@ 0x58
10000836:	2257      	movs	r2, #87	@ 0x57
10000838:	2128      	movs	r1, #40	@ 0x28
1000083a:	e9cd 4500 	strd	r4, r5, [sp]
1000083e:	f002 fd9d 	bl	1000337c <uGUI::FillFrame(short, short, short, short, unsigned long)>
10000842:	b005      	add	sp, #20
10000844:	e8bd 8ff0 	ldmia.w	sp!, {r4, r5, r6, r7, r8, r9, sl, fp, pc}
10000848:	f64f 78ff 	movw	r8, #65535	@ 0xffff
1000084c:	2400      	movs	r4, #0
1000084e:	4b57      	ldr	r3, [pc, #348]	@ (100009ac <Face::_drawMouth()+0x22c>)
10000850:	68b2      	ldr	r2, [r6, #8]
10000852:	4d57      	ldr	r5, [pc, #348]	@ (100009b0 <Face::_drawMouth()+0x230>)
10000854:	fba3 1202 	umull	r1, r2, r3, r2
10000858:	0852      	lsrs	r2, r2, #1
1000085a:	fba3 1302 	umull	r1, r3, r3, r2
1000085e:	085f      	lsrs	r7, r3, #1
10000860:	eb07 0747 	add.w	r7, r7, r7, lsl #1
10000864:	1bd7      	subs	r7, r2, r7
10000866:	eb04 01c4 	add.w	r1, r4, r4, lsl #3
1000086a:	0049      	lsls	r1, r1, #1
1000086c:	312e      	adds	r1, #46	@ 0x2e
1000086e:	42a7      	cmp	r7, r4
10000870:	b209      	sxth	r1, r1
10000872:	d046      	beq.n	10000902 <Face::_drawMouth()+0x182>
10000874:	2303      	movs	r3, #3
10000876:	2258      	movs	r2, #88	@ 0x58
10000878:	9500      	str	r5, [sp, #0]
1000087a:	3401      	adds	r4, #1
1000087c:	f003 f8f4 	bl	10003a68 <uGUI::FillCircle(short, short, short, unsigned long)>
10000880:	2c03      	cmp	r4, #3
10000882:	d0cc      	beq.n	1000081e <Face::_drawMouth()+0x9e>
10000884:	6830      	ldr	r0, [r6, #0]
10000886:	e7ee      	b.n	10000866 <Face::_drawMouth()+0xe6>
10000888:	f04f 0a0c 	mov.w	sl, #12
1000088c:	f64f 78ff 	movw	r8, #65535	@ 0xffff
10000890:	2500      	movs	r5, #0
10000892:	f04f 0964 	mov.w	r9, #100	@ 0x64
10000896:	4f44      	ldr	r7, [pc, #272]	@ (100009a8 <Face::_drawMouth()+0x228>)
10000898:	e000      	b.n	1000089c <Face::_drawMouth()+0x11c>
1000089a:	6830      	ldr	r0, [r6, #0]
1000089c:	f242 7210 	movw	r2, #10000	@ 0x2710
100008a0:	fb09 f405 	mul.w	r4, r9, r5
100008a4:	4943      	ldr	r1, [pc, #268]	@ (100009b4 <Face::_drawMouth()+0x234>)
100008a6:	f5a4 6416 	sub.w	r4, r4, #2400	@ 0x960
100008aa:	fb81 1c04 	smull	r1, ip, r1, r4
100008ae:	17e4      	asrs	r4, r4, #31
100008b0:	ebc4 04ac 	rsb	r4, r4, ip, asr #2
100008b4:	fb04 2414 	mls	r4, r4, r4, r2
100008b8:	fb14 f40a 	smulbb	r4, r4, sl
100008bc:	fba7 2404 	umull	r2, r4, r7, r4
100008c0:	f105 0b28 	add.w	fp, r5, #40	@ 0x28
100008c4:	f3c4 344f 	ubfx	r4, r4, #13, #16
100008c8:	fa0f fb8b 	sxth.w	fp, fp
100008cc:	f1c4 0258 	rsb	r2, r4, #88	@ 0x58
100008d0:	4643      	mov	r3, r8
100008d2:	4659      	mov	r1, fp
100008d4:	b212      	sxth	r2, r2
100008d6:	f002 fd6f 	bl	100033b8 <uGUI::DrawPixel(short, short, unsigned long)>
100008da:	f1c4 0259 	rsb	r2, r4, #89	@ 0x59
100008de:	4643      	mov	r3, r8
100008e0:	4659      	mov	r1, fp
100008e2:	6830      	ldr	r0, [r6, #0]
100008e4:	b212      	sxth	r2, r2
100008e6:	3501      	adds	r5, #1
100008e8:	f002 fd66 	bl	100033b8 <uGUI::DrawPixel(short, short, unsigned long)>
100008ec:	2d31      	cmp	r5, #49	@ 0x31
100008ee:	d1d4      	bne.n	1000089a <Face::_drawMouth()+0x11a>
100008f0:	b005      	add	sp, #20
100008f2:	e8bd 8ff0 	ldmia.w	sp!, {r4, r5, r6, r7, r8, r9, sl, fp, pc}
100008f6:	f04f 0a0c 	mov.w	sl, #12
100008fa:	e7c9      	b.n	10000890 <Face::_drawMouth()+0x110>
100008fc:	f04f 0a08 	mov.w	sl, #8
10000900:	e7c6      	b.n	10000890 <Face::_drawMouth()+0x110>
10000902:	2305      	movs	r3, #5
10000904:	2258      	movs	r2, #88	@ 0x58
10000906:	f8cd 8000 	str.w	r8, [sp]
1000090a:	f003 f8ad 	bl	10003a68 <uGUI::FillCircle(short, short, short, unsigned long)>
1000090e:	2f02      	cmp	r7, #2
10000910:	f107 0401 	add.w	r4, r7, #1
10000914:	d1b6      	bne.n	10000884 <Face::_drawMouth()+0x104>
10000916:	e782      	b.n	1000081e <Face::_drawMouth()+0x9e>
10000918:	f64f 78ff 	movw	r8, #65535	@ 0xffff
1000091c:	f8cd 8008 	str.w	r8, [sp, #8]
10000920:	68b2      	ldr	r2, [r6, #8]
10000922:	4b22      	ldr	r3, [pc, #136]	@ (100009ac <Face::_drawMouth()+0x22c>)
10000924:	4924      	ldr	r1, [pc, #144]	@ (100009b8 <Face::_drawMouth()+0x238>)
10000926:	fba3 4302 	umull	r4, r3, r3, r2
1000092a:	089b      	lsrs	r3, r3, #2
1000092c:	eb03 0343 	add.w	r3, r3, r3, lsl #1
10000930:	eba2 0243 	sub.w	r2, r2, r3, lsl #1
10000934:	568d      	ldrsb	r5, [r1, r2]
10000936:	2132      	movs	r1, #50	@ 0x32
10000938:	2d0a      	cmp	r5, #10
1000093a:	462b      	mov	r3, r5
1000093c:	bfa8      	it	ge
1000093e:	230a      	movge	r3, #10
10000940:	b2ac      	uxth	r4, r5
10000942:	9301      	str	r3, [sp, #4]
10000944:	f104 0358 	add.w	r3, r4, #88	@ 0x58
10000948:	f1c4 0258 	rsb	r2, r4, #88	@ 0x58
1000094c:	b21b      	sxth	r3, r3
1000094e:	9300      	str	r3, [sp, #0]
10000950:	b212      	sxth	r2, r2
10000952:	234e      	movs	r3, #78	@ 0x4e
10000954:	f002 fe28 	bl	100035a8 <uGUI::FillRoundFrame(short, short, short, short, short, unsigned long)>
10000958:	2d08      	cmp	r5, #8
1000095a:	bfa8      	it	ge
1000095c:	2508      	movge	r5, #8
1000095e:	f44f 1740 	mov.w	r7, #3145728	@ 0x300000
10000962:	f104 0056 	add.w	r0, r4, #86	@ 0x56
10000966:	b200      	sxth	r0, r0
10000968:	9000      	str	r0, [sp, #0]
1000096a:	f1c4 025a 	rsb	r2, r4, #90	@ 0x5a
1000096e:	6830      	ldr	r0, [r6, #0]
10000970:	234b      	movs	r3, #75	@ 0x4b
10000972:	2135      	movs	r1, #53	@ 0x35
10000974:	9702      	str	r7, [sp, #8]
10000976:	b212      	sxth	r2, r2
10000978:	9501      	str	r5, [sp, #4]
1000097a:	f002 fe15 	bl	100035a8 <uGUI::FillRoundFrame(short, short, short, short, short, unsigned long)>
1000097e:	b005      	add	sp, #20
10000980:	e8bd 8ff0 	ldmia.w	sp!, {r4, r5, r6, r7, r8, r9, sl, fp, pc}
10000984:	4d0d      	ldr	r5, [pc, #52]	@ (100009bc <Face::_drawMouth()+0x23c>)
10000986:	2307      	movs	r3, #7
10000988:	2258      	movs	r2, #88	@ 0x58
1000098a:	2140      	movs	r1, #64	@ 0x40
1000098c:	f8cd 8000 	str.w	r8, [sp]
10000990:	f003 f86a 	bl	10003a68 <uGUI::FillCircle(short, short, short, unsigned long)>
10000994:	6830      	ldr	r0, [r6, #0]
10000996:	2258      	movs	r2, #88	@ 0x58
10000998:	2140      	movs	r1, #64	@ 0x40
1000099a:	4623      	mov	r3, r4
1000099c:	9500      	str	r5, [sp, #0]
1000099e:	f003 f863 	bl	10003a68 <uGUI::FillCircle(short, short, short, unsigned long)>
100009a2:	e73c      	b.n	1000081e <Face::_drawMouth()+0x9e>
100009a4:	100046a8 	.word	0x100046a8
100009a8:	d1b71759 	.word	0xd1b71759
100009ac:	aaaaaaab 	.word	0xaaaaaaab
100009b0:	00808080 	.word	0x00808080
100009b4:	2aaaaaab 	.word	0x2aaaaaab
100009b8:	100046b8 	.word	0x100046b8
100009bc:	000a1430 	.word	0x000a1430

100009c0 <Face::_drawStatus()>:
100009c0:	2100      	movs	r1, #0
100009c2:	237f      	movs	r3, #127	@ 0x7f
100009c4:	b510      	push	{r4, lr}
100009c6:	4604      	mov	r4, r0
100009c8:	b082      	sub	sp, #8
100009ca:	e9cd 3100 	strd	r3, r1, [sp]
100009ce:	2274      	movs	r2, #116	@ 0x74
100009d0:	6800      	ldr	r0, [r0, #0]
100009d2:	f002 fcd3 	bl	1000337c <uGUI::FillFrame(short, short, short, short, unsigned long)>
100009d6:	7923      	ldrb	r3, [r4, #4]
100009d8:	6820      	ldr	r0, [r4, #0]
100009da:	3b01      	subs	r3, #1
100009dc:	b2db      	uxtb	r3, r3
100009de:	2b03      	cmp	r3, #3
100009e0:	bf96      	itet	ls
100009e2:	4a11      	ldrls	r2, [pc, #68]	@ (10000a28 <Face::_drawStatus()+0x68>)
100009e4:	f64f 71ff 	movwhi	r1, #65535	@ 0xffff
100009e8:	f852 1023 	ldrls.w	r1, [r2, r3, lsl #2]
100009ec:	f003 f9dc 	bl	10003da8 <uGUI::SetForecolor(unsigned long)>
100009f0:	6820      	ldr	r0, [r4, #0]
100009f2:	2100      	movs	r1, #0
100009f4:	f003 f9da 	bl	10003dac <uGUI::SetBackcolor(unsigned long)>
100009f8:	6820      	ldr	r0, [r4, #0]
100009fa:	490c      	ldr	r1, [pc, #48]	@ (10000a2c <Face::_drawStatus()+0x6c>)
100009fc:	f002 fc90 	bl	10003320 <uGUI::FontSelect(uGUI::FONT const*)>
10000a00:	7963      	ldrb	r3, [r4, #5]
10000a02:	6820      	ldr	r0, [r4, #0]
10000a04:	2401      	movs	r4, #1
10000a06:	3b01      	subs	r3, #1
10000a08:	b2db      	uxtb	r3, r3
10000a0a:	2b02      	cmp	r3, #2
10000a0c:	bf98      	it	ls
10000a0e:	4a08      	ldrls	r2, [pc, #32]	@ (10000a30 <Face::_drawStatus()+0x70>)
10000a10:	f04f 0104 	mov.w	r1, #4
10000a14:	bf94      	ite	ls
10000a16:	f852 3023 	ldrls.w	r3, [r2, r3, lsl #2]
10000a1a:	4b06      	ldrhi	r3, [pc, #24]	@ (10000a34 <Face::_drawStatus()+0x74>)
10000a1c:	2276      	movs	r2, #118	@ 0x76
10000a1e:	9400      	str	r4, [sp, #0]
10000a20:	f003 f982 	bl	10003d28 <uGUI::PutString(short, short, char const*, bool)>
10000a24:	b002      	add	sp, #8
10000a26:	bd10      	pop	{r4, pc}
10000a28:	100046a8 	.word	0x100046a8
10000a2c:	100047a4 	.word	0x100047a4
10000a30:	1000469c 	.word	0x1000469c
10000a34:	10004660 	.word	0x10004660

10000a38 <Face::begin()>:
10000a38:	b570      	push	{r4, r5, r6, lr}
10000a3a:	2100      	movs	r1, #0
10000a3c:	4604      	mov	r4, r0
10000a3e:	b082      	sub	sp, #8
10000a40:	6800      	ldr	r0, [r0, #0]
10000a42:	f002 fc77 	bl	10003334 <uGUI::FillScreen(unsigned long)>
10000a46:	2500      	movs	r5, #0
10000a48:	2301      	movs	r3, #1
10000a4a:	4620      	mov	r0, r4
10000a4c:	7323      	strb	r3, [r4, #12]
10000a4e:	60a5      	str	r5, [r4, #8]
10000a50:	f7ff fc70 	bl	10000334 <Face::_drawHead()>
10000a54:	4620      	mov	r0, r4
10000a56:	f7ff ffb3 	bl	100009c0 <Face::_drawStatus()>
10000a5a:	206c      	movs	r0, #108	@ 0x6c
10000a5c:	4e0a      	ldr	r6, [pc, #40]	@ (10000a88 <Face::begin()+0x50>)
10000a5e:	7325      	strb	r5, [r4, #12]
10000a60:	e9cd 0600 	strd	r0, r6, [sp]
10000a64:	2377      	movs	r3, #119	@ 0x77
10000a66:	2212      	movs	r2, #18
10000a68:	2108      	movs	r1, #8
10000a6a:	6820      	ldr	r0, [r4, #0]
10000a6c:	f002 fc86 	bl	1000337c <uGUI::FillFrame(short, short, short, short, unsigned long)>
10000a70:	4620      	mov	r0, r4
10000a72:	f7ff fca9 	bl	100003c8 <Face::_drawEyes()>
10000a76:	4620      	mov	r0, r4
10000a78:	f7ff fe82 	bl	10000780 <Face::_drawMouth()>
10000a7c:	68a3      	ldr	r3, [r4, #8]
10000a7e:	3301      	adds	r3, #1
10000a80:	60a3      	str	r3, [r4, #8]
10000a82:	b002      	add	sp, #8
10000a84:	bd70      	pop	{r4, r5, r6, pc}
10000a86:	bf00      	nop
10000a88:	000a1430 	.word	0x000a1430

10000a8c <Face::tick()>:
10000a8c:	b530      	push	{r4, r5, lr}
10000a8e:	7b03      	ldrb	r3, [r0, #12]
10000a90:	4604      	mov	r4, r0
10000a92:	b083      	sub	sp, #12
10000a94:	b9a3      	cbnz	r3, 10000ac0 <Face::tick()+0x34>
10000a96:	256c      	movs	r5, #108	@ 0x6c
10000a98:	490d      	ldr	r1, [pc, #52]	@ (10000ad0 <Face::tick()+0x44>)
10000a9a:	2377      	movs	r3, #119	@ 0x77
10000a9c:	9101      	str	r1, [sp, #4]
10000a9e:	2212      	movs	r2, #18
10000aa0:	2108      	movs	r1, #8
10000aa2:	6820      	ldr	r0, [r4, #0]
10000aa4:	9500      	str	r5, [sp, #0]
10000aa6:	f002 fc69 	bl	1000337c <uGUI::FillFrame(short, short, short, short, unsigned long)>
10000aaa:	4620      	mov	r0, r4
10000aac:	f7ff fc8c 	bl	100003c8 <Face::_drawEyes()>
10000ab0:	4620      	mov	r0, r4
10000ab2:	f7ff fe65 	bl	10000780 <Face::_drawMouth()>
10000ab6:	68a3      	ldr	r3, [r4, #8]
10000ab8:	3301      	adds	r3, #1
10000aba:	60a3      	str	r3, [r4, #8]
10000abc:	b003      	add	sp, #12
10000abe:	bd30      	pop	{r4, r5, pc}
10000ac0:	f7ff fc38 	bl	10000334 <Face::_drawHead()>
10000ac4:	4620      	mov	r0, r4
10000ac6:	f7ff ff7b 	bl	100009c0 <Face::_drawStatus()>
10000aca:	2300      	movs	r3, #0
10000acc:	7323      	strb	r3, [r4, #12]
10000ace:	e7e2      	b.n	10000a96 <Face::tick()+0xa>
10000ad0:	000a1430 	.word	0x000a1430

10000ad4 <pixel_stream_const::getNext()>:
10000ad4:	6840      	ldr	r0, [r0, #4]
10000ad6:	4770      	bx	lr

10000ad8 <pixel_stream_const::getColorType()>:
10000ad8:	6840      	ldr	r0, [r0, #4]
10000ada:	f000 407f 	and.w	r0, r0, #4278190080	@ 0xff000000
10000ade:	4770      	bx	lr

10000ae0 <pixel_stream_const::reset()>:
10000ae0:	4770      	bx	lr
10000ae2:	bf00      	nop

10000ae4 <pixel_stream_const::~pixel_stream_const()>:
10000ae4:	4770      	bx	lr
10000ae6:	bf00      	nop

10000ae8 <pixel_stream_const::~pixel_stream_const()>:
10000ae8:	b510      	push	{r4, lr}
10000aea:	4604      	mov	r4, r0
10000aec:	2108      	movs	r1, #8
10000aee:	f003 f964 	bl	10003dba <operator delete(void*, unsigned int)>
10000af2:	4620      	mov	r0, r4
10000af4:	bd10      	pop	{r4, pc}
10000af6:	bf00      	nop

10000af8 <_GLOBAL__sub_I__ZN11ssd2119_drv14Kentec_K350QVGE>:
10000af8:	4b01      	ldr	r3, [pc, #4]	@ (10000b00 <_GLOBAL__sub_I__ZN11ssd2119_drv14Kentec_K350QVGE+0x8>)
10000afa:	4a02      	ldr	r2, [pc, #8]	@ (10000b04 <_GLOBAL__sub_I__ZN11ssd2119_drv14Kentec_K350QVGE+0xc>)
10000afc:	601a      	str	r2, [r3, #0]
10000afe:	4770      	bx	lr
10000b00:	200004b0 	.word	0x200004b0
10000b04:	00f00140 	.word	0x00f00140

10000b08 <st7735s_drv::~st7735s_drv()>:
10000b08:	4770      	bx	lr
10000b0a:	bf00      	nop

10000b0c <st7735s_drv::getSizeX()>:
10000b0c:	f890 2114 	ldrb.w	r2, [r0, #276]	@ 0x114
10000b10:	f8d0 3110 	ldr.w	r3, [r0, #272]	@ 0x110
10000b14:	2a01      	cmp	r2, #1
10000b16:	bf94      	ite	ls
10000b18:	8818      	ldrhls	r0, [r3, #0]
10000b1a:	8858      	ldrhhi	r0, [r3, #2]
10000b1c:	4770      	bx	lr
10000b1e:	bf00      	nop

10000b20 <st7735s_drv::getSizeY()>:
10000b20:	f890 2114 	ldrb.w	r2, [r0, #276]	@ 0x114
10000b24:	f8d0 3110 	ldr.w	r3, [r0, #272]	@ 0x110
10000b28:	2a01      	cmp	r2, #1
10000b2a:	bf94      	ite	ls
10000b2c:	8858      	ldrhls	r0, [r3, #2]
10000b2e:	8818      	ldrhhi	r0, [r3, #0]
10000b30:	4770      	bx	lr
10000b32:	bf00      	nop

10000b34 <st7735s_drv::~st7735s_drv()>:
10000b34:	b510      	push	{r4, lr}
10000b36:	4604      	mov	r4, r0
10000b38:	f44f 718e 	mov.w	r1, #284	@ 0x11c
10000b3c:	f003 f93d 	bl	10003dba <operator delete(void*, unsigned int)>
10000b40:	4620      	mov	r0, r4
10000b42:	bd10      	pop	{r4, pc}

10000b44 <st7735s_drv::setOrientation(st7735s_drv::Orientation)>:
10000b44:	b5f0      	push	{r4, r5, r6, r7, lr}
10000b46:	f8d0 3110 	ldr.w	r3, [r0, #272]	@ 0x110
10000b4a:	b083      	sub	sp, #12
10000b4c:	f880 1114 	strb.w	r1, [r0, #276]	@ 0x114
10000b50:	7a9b      	ldrb	r3, [r3, #10]
10000b52:	4604      	mov	r4, r0
10000b54:	f8d0 0118 	ldr.w	r0, [r0, #280]	@ 0x118
10000b58:	00db      	lsls	r3, r3, #3
10000b5a:	460e      	mov	r6, r1
10000b5c:	f003 0508 	and.w	r5, r3, #8
10000b60:	b110      	cbz	r0, 10000b68 <st7735s_drv::setOrientation(st7735s_drv::Orientation)+0x24>
10000b62:	6803      	ldr	r3, [r0, #0]
10000b64:	681b      	ldr	r3, [r3, #0]
10000b66:	4798      	blx	r3
10000b68:	2236      	movs	r2, #54	@ 0x36
10000b6a:	f8d4 010c 	ldr.w	r0, [r4, #268]	@ 0x10c
10000b6e:	f88d 2006 	strb.w	r2, [sp, #6]
10000b72:	6803      	ldr	r3, [r0, #0]
10000b74:	2100      	movs	r1, #0
10000b76:	691b      	ldr	r3, [r3, #16]
10000b78:	4798      	blx	r3
10000b7a:	f8d4 0104 	ldr.w	r0, [r4, #260]	@ 0x104
10000b7e:	f10d 0106 	add.w	r1, sp, #6
10000b82:	6802      	ldr	r2, [r0, #0]
10000b84:	2301      	movs	r3, #1
10000b86:	6817      	ldr	r7, [r2, #0]
10000b88:	f10d 0207 	add.w	r2, sp, #7
10000b8c:	47b8      	blx	r7
10000b8e:	f8d4 010c 	ldr.w	r0, [r4, #268]	@ 0x10c
10000b92:	2101      	movs	r1, #1
10000b94:	6803      	ldr	r3, [r0, #0]
10000b96:	691b      	ldr	r3, [r3, #16]
10000b98:	4798      	blx	r3
10000b9a:	2e03      	cmp	r6, #3
10000b9c:	d80f      	bhi.n	10000bbe <st7735s_drv::setOrientation(st7735s_drv::Orientation)+0x7a>
10000b9e:	e8df f006 	tbb	[pc, r6]
10000ba2:	1c21      	.short	0x1c21
10000ba4:	0217      	.short	0x0217
10000ba6:	f8d4 0104 	ldr.w	r0, [r4, #260]	@ 0x104
10000baa:	f045 0360 	orr.w	r3, r5, #96	@ 0x60
10000bae:	f88d 3007 	strb.w	r3, [sp, #7]
10000bb2:	6803      	ldr	r3, [r0, #0]
10000bb4:	2201      	movs	r2, #1
10000bb6:	685b      	ldr	r3, [r3, #4]
10000bb8:	f10d 0107 	add.w	r1, sp, #7
10000bbc:	4798      	blx	r3
10000bbe:	f8d4 0118 	ldr.w	r0, [r4, #280]	@ 0x118
10000bc2:	b1a0      	cbz	r0, 10000bee <st7735s_drv::setOrientation(st7735s_drv::Orientation)+0xaa>
10000bc4:	6803      	ldr	r3, [r0, #0]
10000bc6:	685b      	ldr	r3, [r3, #4]
10000bc8:	b003      	add	sp, #12
10000bca:	e8bd 40f0 	ldmia.w	sp!, {r4, r5, r6, r7, lr}
10000bce:	4718      	bx	r3
10000bd0:	f8d4 0104 	ldr.w	r0, [r4, #260]	@ 0x104
10000bd4:	f065 035f 	orn	r3, r5, #95	@ 0x5f
10000bd8:	e7e9      	b.n	10000bae <st7735s_drv::setOrientation(st7735s_drv::Orientation)+0x6a>
10000bda:	f8d4 0104 	ldr.w	r0, [r4, #260]	@ 0x104
10000bde:	f88d 5007 	strb.w	r5, [sp, #7]
10000be2:	e7e6      	b.n	10000bb2 <st7735s_drv::setOrientation(st7735s_drv::Orientation)+0x6e>
10000be4:	f8d4 0104 	ldr.w	r0, [r4, #260]	@ 0x104
10000be8:	f065 033f 	orn	r3, r5, #63	@ 0x3f
10000bec:	e7df      	b.n	10000bae <st7735s_drv::setOrientation(st7735s_drv::Orientation)+0x6a>
10000bee:	b003      	add	sp, #12
10000bf0:	bdf0      	pop	{r4, r5, r6, r7, pc}
10000bf2:	bf00      	nop

10000bf4 <st7735s_drv::scroll(short)>:
10000bf4:	b530      	push	{r4, r5, lr}
10000bf6:	f890 3115 	ldrb.w	r3, [r0, #277]	@ 0x115
10000bfa:	f8d0 2110 	ldr.w	r2, [r0, #272]	@ 0x110
10000bfe:	4419      	add	r1, r3
10000c00:	b24b      	sxtb	r3, r1
10000c02:	b083      	sub	sp, #12
10000c04:	2b00      	cmp	r3, #0
10000c06:	f880 3115 	strb.w	r3, [r0, #277]	@ 0x115
10000c0a:	4604      	mov	r4, r0
10000c0c:	8852      	ldrh	r2, [r2, #2]
10000c0e:	b2c9      	uxtb	r1, r1
10000c10:	db47      	blt.n	10000ca2 <st7735s_drv::scroll(short)+0xae>
10000c12:	4291      	cmp	r1, r2
10000c14:	bfa4      	itt	ge
10000c16:	1a89      	subge	r1, r1, r2
10000c18:	f880 1115 	strbge.w	r1, [r0, #277]	@ 0x115
10000c1c:	f8d4 0118 	ldr.w	r0, [r4, #280]	@ 0x118
10000c20:	b110      	cbz	r0, 10000c28 <st7735s_drv::scroll(short)+0x34>
10000c22:	6803      	ldr	r3, [r0, #0]
10000c24:	681b      	ldr	r3, [r3, #0]
10000c26:	4798      	blx	r3
10000c28:	2237      	movs	r2, #55	@ 0x37
10000c2a:	f8d4 010c 	ldr.w	r0, [r4, #268]	@ 0x10c
10000c2e:	2100      	movs	r1, #0
10000c30:	6803      	ldr	r3, [r0, #0]
10000c32:	f88d 2006 	strb.w	r2, [sp, #6]
10000c36:	691b      	ldr	r3, [r3, #16]
10000c38:	4798      	blx	r3
10000c3a:	f8d4 0104 	ldr.w	r0, [r4, #260]	@ 0x104
10000c3e:	2301      	movs	r3, #1
10000c40:	6802      	ldr	r2, [r0, #0]
10000c42:	f10d 0106 	add.w	r1, sp, #6
10000c46:	6815      	ldr	r5, [r2, #0]
10000c48:	f10d 0207 	add.w	r2, sp, #7
10000c4c:	47a8      	blx	r5
10000c4e:	f8d4 010c 	ldr.w	r0, [r4, #268]	@ 0x10c
10000c52:	2101      	movs	r1, #1
10000c54:	6803      	ldr	r3, [r0, #0]
10000c56:	691b      	ldr	r3, [r3, #16]
10000c58:	4798      	blx	r3
10000c5a:	2300      	movs	r3, #0
10000c5c:	f8d4 0104 	ldr.w	r0, [r4, #260]	@ 0x104
10000c60:	f88d 3007 	strb.w	r3, [sp, #7]
10000c64:	6803      	ldr	r3, [r0, #0]
10000c66:	2201      	movs	r2, #1
10000c68:	685b      	ldr	r3, [r3, #4]
10000c6a:	f10d 0107 	add.w	r1, sp, #7
10000c6e:	4798      	blx	r3
10000c70:	f8d4 3110 	ldr.w	r3, [r4, #272]	@ 0x110
10000c74:	f894 0115 	ldrb.w	r0, [r4, #277]	@ 0x115
10000c78:	7a5b      	ldrb	r3, [r3, #9]
10000c7a:	2201      	movs	r2, #1
10000c7c:	4403      	add	r3, r0
10000c7e:	f8d4 0104 	ldr.w	r0, [r4, #260]	@ 0x104
10000c82:	f88d 3007 	strb.w	r3, [sp, #7]
10000c86:	6803      	ldr	r3, [r0, #0]
10000c88:	f10d 0107 	add.w	r1, sp, #7
10000c8c:	685b      	ldr	r3, [r3, #4]
10000c8e:	4798      	blx	r3
10000c90:	f8d4 0118 	ldr.w	r0, [r4, #280]	@ 0x118
10000c94:	b148      	cbz	r0, 10000caa <st7735s_drv::scroll(short)+0xb6>
10000c96:	6803      	ldr	r3, [r0, #0]
10000c98:	685b      	ldr	r3, [r3, #4]
10000c9a:	b003      	add	sp, #12
10000c9c:	e8bd 4030 	ldmia.w	sp!, {r4, r5, lr}
10000ca0:	4718      	bx	r3
10000ca2:	4411      	add	r1, r2
10000ca4:	f880 1115 	strb.w	r1, [r0, #277]	@ 0x115
10000ca8:	e7b8      	b.n	10000c1c <st7735s_drv::scroll(short)+0x28>
10000caa:	b003      	add	sp, #12
10000cac:	bd30      	pop	{r4, r5, pc}
10000cae:	bf00      	nop

10000cb0 <st7735s_drv::st7735s_drv(spi_interface&, gpio_interface&, gpio_interface&, st7735s_drv::config&, mutex_interface*)>:
10000cb0:	b5f0      	push	{r4, r5, r6, r7, lr}
10000cb2:	4604      	mov	r4, r0
10000cb4:	460e      	mov	r6, r1
10000cb6:	b083      	sub	sp, #12
10000cb8:	e9c0 2342 	strd	r2, r3, [r0, #264]	@ 0x108
10000cbc:	9b08      	ldr	r3, [sp, #32]
10000cbe:	9d09      	ldr	r5, [sp, #36]	@ 0x24
10000cc0:	f8c0 3110 	str.w	r3, [r0, #272]	@ 0x110
10000cc4:	4f8a      	ldr	r7, [pc, #552]	@ (10000ef0 <st7735s_drv::st7735s_drv(spi_interface&, gpio_interface&, gpio_interface&, st7735s_drv::config&, mutex_interface*)+0x240>)
10000cc6:	6813      	ldr	r3, [r2, #0]
10000cc8:	6007      	str	r7, [r0, #0]
10000cca:	f8c0 6104 	str.w	r6, [r0, #260]	@ 0x104
10000cce:	f44f 7181 	mov.w	r1, #258	@ 0x102
10000cd2:	4610      	mov	r0, r2
10000cd4:	f8c4 5118 	str.w	r5, [r4, #280]	@ 0x118
10000cd8:	689b      	ldr	r3, [r3, #8]
10000cda:	4798      	blx	r3
10000cdc:	f8d4 010c 	ldr.w	r0, [r4, #268]	@ 0x10c
10000ce0:	f44f 7181 	mov.w	r1, #258	@ 0x102
10000ce4:	6803      	ldr	r3, [r0, #0]
10000ce6:	689b      	ldr	r3, [r3, #8]
10000ce8:	4798      	blx	r3
10000cea:	f8d4 0108 	ldr.w	r0, [r4, #264]	@ 0x108
10000cee:	2100      	movs	r1, #0
10000cf0:	6803      	ldr	r3, [r0, #0]
10000cf2:	691b      	ldr	r3, [r3, #16]
10000cf4:	4798      	blx	r3
10000cf6:	200a      	movs	r0, #10
10000cf8:	f001 ffa2 	bl	10002c40 <task::sleep_ms(unsigned long)>
10000cfc:	f8d4 0108 	ldr.w	r0, [r4, #264]	@ 0x108
10000d00:	2101      	movs	r1, #1
10000d02:	6803      	ldr	r3, [r0, #0]
10000d04:	691b      	ldr	r3, [r3, #16]
10000d06:	4798      	blx	r3
10000d08:	f44f 7096 	mov.w	r0, #300	@ 0x12c
10000d0c:	f001 ff98 	bl	10002c40 <task::sleep_ms(unsigned long)>
10000d10:	2311      	movs	r3, #17
10000d12:	f8d4 010c 	ldr.w	r0, [r4, #268]	@ 0x10c
10000d16:	f88d 3006 	strb.w	r3, [sp, #6]
10000d1a:	6803      	ldr	r3, [r0, #0]
10000d1c:	2100      	movs	r1, #0
10000d1e:	691b      	ldr	r3, [r3, #16]
10000d20:	4798      	blx	r3
10000d22:	f8d4 0104 	ldr.w	r0, [r4, #260]	@ 0x104
10000d26:	f10d 0106 	add.w	r1, sp, #6
10000d2a:	6802      	ldr	r2, [r0, #0]
10000d2c:	2301      	movs	r3, #1
10000d2e:	6815      	ldr	r5, [r2, #0]
10000d30:	f10d 0207 	add.w	r2, sp, #7
10000d34:	47a8      	blx	r5
10000d36:	f8d4 010c 	ldr.w	r0, [r4, #268]	@ 0x10c
10000d3a:	2101      	movs	r1, #1
10000d3c:	6803      	ldr	r3, [r0, #0]
10000d3e:	691b      	ldr	r3, [r3, #16]
10000d40:	4798      	blx	r3
10000d42:	2096      	movs	r0, #150	@ 0x96
10000d44:	f001 ff7c 	bl	10002c40 <task::sleep_ms(unsigned long)>
10000d48:	2326      	movs	r3, #38	@ 0x26
10000d4a:	f8d4 010c 	ldr.w	r0, [r4, #268]	@ 0x10c
10000d4e:	f88d 3006 	strb.w	r3, [sp, #6]
10000d52:	6803      	ldr	r3, [r0, #0]
10000d54:	2100      	movs	r1, #0
10000d56:	691b      	ldr	r3, [r3, #16]
10000d58:	4798      	blx	r3
10000d5a:	f8d4 0104 	ldr.w	r0, [r4, #260]	@ 0x104
10000d5e:	f10d 0207 	add.w	r2, sp, #7
10000d62:	6801      	ldr	r1, [r0, #0]
10000d64:	2301      	movs	r3, #1
10000d66:	680d      	ldr	r5, [r1, #0]
10000d68:	f10d 0106 	add.w	r1, sp, #6
10000d6c:	47a8      	blx	r5
10000d6e:	f8d4 010c 	ldr.w	r0, [r4, #268]	@ 0x10c
10000d72:	2101      	movs	r1, #1
10000d74:	6803      	ldr	r3, [r0, #0]
10000d76:	691b      	ldr	r3, [r3, #16]
10000d78:	4798      	blx	r3
10000d7a:	2303      	movs	r3, #3
10000d7c:	f8d4 0104 	ldr.w	r0, [r4, #260]	@ 0x104
10000d80:	f88d 3007 	strb.w	r3, [sp, #7]
10000d84:	6803      	ldr	r3, [r0, #0]
10000d86:	2201      	movs	r2, #1
10000d88:	f10d 0107 	add.w	r1, sp, #7
10000d8c:	685b      	ldr	r3, [r3, #4]
10000d8e:	4798      	blx	r3
10000d90:	233a      	movs	r3, #58	@ 0x3a
10000d92:	f8d4 010c 	ldr.w	r0, [r4, #268]	@ 0x10c
10000d96:	f88d 3006 	strb.w	r3, [sp, #6]
10000d9a:	6803      	ldr	r3, [r0, #0]
10000d9c:	2100      	movs	r1, #0
10000d9e:	691b      	ldr	r3, [r3, #16]
10000da0:	4798      	blx	r3
10000da2:	f8d4 0104 	ldr.w	r0, [r4, #260]	@ 0x104
10000da6:	f10d 0207 	add.w	r2, sp, #7
10000daa:	6801      	ldr	r1, [r0, #0]
10000dac:	2301      	movs	r3, #1
10000dae:	680d      	ldr	r5, [r1, #0]
10000db0:	f10d 0106 	add.w	r1, sp, #6
10000db4:	47a8      	blx	r5
10000db6:	f8d4 010c 	ldr.w	r0, [r4, #268]	@ 0x10c
10000dba:	2101      	movs	r1, #1
10000dbc:	6803      	ldr	r3, [r0, #0]
10000dbe:	691b      	ldr	r3, [r3, #16]
10000dc0:	4798      	blx	r3
10000dc2:	2305      	movs	r3, #5
10000dc4:	f8d4 0104 	ldr.w	r0, [r4, #260]	@ 0x104
10000dc8:	f88d 3007 	strb.w	r3, [sp, #7]
10000dcc:	6803      	ldr	r3, [r0, #0]
10000dce:	2201      	movs	r2, #1
10000dd0:	f10d 0107 	add.w	r1, sp, #7
10000dd4:	685b      	ldr	r3, [r3, #4]
10000dd6:	4798      	blx	r3
10000dd8:	2333      	movs	r3, #51	@ 0x33
10000dda:	f8d4 010c 	ldr.w	r0, [r4, #268]	@ 0x10c
10000dde:	f88d 3006 	strb.w	r3, [sp, #6]
10000de2:	6803      	ldr	r3, [r0, #0]
10000de4:	2100      	movs	r1, #0
10000de6:	691b      	ldr	r3, [r3, #16]
10000de8:	4798      	blx	r3
10000dea:	f8d4 0104 	ldr.w	r0, [r4, #260]	@ 0x104
10000dee:	f10d 0207 	add.w	r2, sp, #7
10000df2:	6801      	ldr	r1, [r0, #0]
10000df4:	2301      	movs	r3, #1
10000df6:	680d      	ldr	r5, [r1, #0]
10000df8:	f10d 0106 	add.w	r1, sp, #6
10000dfc:	47a8      	blx	r5
10000dfe:	2500      	movs	r5, #0
10000e00:	f8d4 010c 	ldr.w	r0, [r4, #268]	@ 0x10c
10000e04:	2101      	movs	r1, #1
10000e06:	6803      	ldr	r3, [r0, #0]
10000e08:	691b      	ldr	r3, [r3, #16]
10000e0a:	4798      	blx	r3
10000e0c:	f8d4 0104 	ldr.w	r0, [r4, #260]	@ 0x104
10000e10:	f88d 5007 	strb.w	r5, [sp, #7]
10000e14:	6803      	ldr	r3, [r0, #0]
10000e16:	f10d 0107 	add.w	r1, sp, #7
10000e1a:	2201      	movs	r2, #1
10000e1c:	685b      	ldr	r3, [r3, #4]
10000e1e:	4798      	blx	r3
10000e20:	f8d4 3110 	ldr.w	r3, [r4, #272]	@ 0x110
10000e24:	f8d4 0104 	ldr.w	r0, [r4, #260]	@ 0x104
10000e28:	7a5b      	ldrb	r3, [r3, #9]
10000e2a:	f10d 0107 	add.w	r1, sp, #7
10000e2e:	f88d 3007 	strb.w	r3, [sp, #7]
10000e32:	6803      	ldr	r3, [r0, #0]
10000e34:	2201      	movs	r2, #1
10000e36:	685b      	ldr	r3, [r3, #4]
10000e38:	4798      	blx	r3
10000e3a:	f8d4 0104 	ldr.w	r0, [r4, #260]	@ 0x104
10000e3e:	f88d 5007 	strb.w	r5, [sp, #7]
10000e42:	6803      	ldr	r3, [r0, #0]
10000e44:	f10d 0107 	add.w	r1, sp, #7
10000e48:	2201      	movs	r2, #1
10000e4a:	685b      	ldr	r3, [r3, #4]
10000e4c:	4798      	blx	r3
10000e4e:	f8d4 3110 	ldr.w	r3, [r4, #272]	@ 0x110
10000e52:	f8d4 0104 	ldr.w	r0, [r4, #260]	@ 0x104
10000e56:	885b      	ldrh	r3, [r3, #2]
10000e58:	f10d 0107 	add.w	r1, sp, #7
10000e5c:	f88d 3007 	strb.w	r3, [sp, #7]
10000e60:	6803      	ldr	r3, [r0, #0]
10000e62:	2201      	movs	r2, #1
10000e64:	685b      	ldr	r3, [r3, #4]
10000e66:	4798      	blx	r3
10000e68:	f8d4 0104 	ldr.w	r0, [r4, #260]	@ 0x104
10000e6c:	f88d 5007 	strb.w	r5, [sp, #7]
10000e70:	6803      	ldr	r3, [r0, #0]
10000e72:	f10d 0107 	add.w	r1, sp, #7
10000e76:	2201      	movs	r2, #1
10000e78:	685b      	ldr	r3, [r3, #4]
10000e7a:	4798      	blx	r3
10000e7c:	f8d4 1110 	ldr.w	r1, [r4, #272]	@ 0x110
10000e80:	f8d4 0104 	ldr.w	r0, [r4, #260]	@ 0x104
10000e84:	f891 c009 	ldrb.w	ip, [r1, #9]
10000e88:	88cb      	ldrh	r3, [r1, #6]
10000e8a:	8849      	ldrh	r1, [r1, #2]
10000e8c:	eba3 030c 	sub.w	r3, r3, ip
10000e90:	1a5b      	subs	r3, r3, r1
10000e92:	f88d 3007 	strb.w	r3, [sp, #7]
10000e96:	6803      	ldr	r3, [r0, #0]
10000e98:	2201      	movs	r2, #1
10000e9a:	685b      	ldr	r3, [r3, #4]
10000e9c:	f10d 0107 	add.w	r1, sp, #7
10000ea0:	4798      	blx	r3
10000ea2:	4629      	mov	r1, r5
10000ea4:	4620      	mov	r0, r4
10000ea6:	f7ff fe4d 	bl	10000b44 <st7735s_drv::setOrientation(st7735s_drv::Orientation)>
10000eaa:	4629      	mov	r1, r5
10000eac:	4620      	mov	r0, r4
10000eae:	f884 5115 	strb.w	r5, [r4, #277]	@ 0x115
10000eb2:	f7ff fe9f 	bl	10000bf4 <st7735s_drv::scroll(short)>
10000eb6:	2329      	movs	r3, #41	@ 0x29
10000eb8:	f8d4 010c 	ldr.w	r0, [r4, #268]	@ 0x10c
10000ebc:	f88d 3006 	strb.w	r3, [sp, #6]
10000ec0:	6803      	ldr	r3, [r0, #0]
10000ec2:	4629      	mov	r1, r5
10000ec4:	691b      	ldr	r3, [r3, #16]
10000ec6:	4798      	blx	r3
10000ec8:	f8d4 0104 	ldr.w	r0, [r4, #260]	@ 0x104
10000ecc:	f10d 0207 	add.w	r2, sp, #7
10000ed0:	6805      	ldr	r5, [r0, #0]
10000ed2:	f10d 0106 	add.w	r1, sp, #6
10000ed6:	2301      	movs	r3, #1
10000ed8:	682d      	ldr	r5, [r5, #0]
10000eda:	47a8      	blx	r5
10000edc:	f8d4 010c 	ldr.w	r0, [r4, #268]	@ 0x10c
10000ee0:	2101      	movs	r1, #1
10000ee2:	6803      	ldr	r3, [r0, #0]
10000ee4:	691b      	ldr	r3, [r3, #16]
10000ee6:	4798      	blx	r3
10000ee8:	4620      	mov	r0, r4
10000eea:	b003      	add	sp, #12
10000eec:	bdf0      	pop	{r4, r5, r6, r7, pc}
10000eee:	bf00      	nop
10000ef0:	100046f4 	.word	0x100046f4

10000ef4 <st7735s_drv::change(unsigned short&, unsigned short&)>:
10000ef4:	f890 3114 	ldrb.w	r3, [r0, #276]	@ 0x114
10000ef8:	b510      	push	{r4, lr}
10000efa:	2b03      	cmp	r3, #3
10000efc:	d809      	bhi.n	10000f12 <st7735s_drv::change(unsigned short&, unsigned short&)+0x1e>
10000efe:	e8df f003 	tbb	[pc, r3]
10000f02:	412f      	.short	0x412f
10000f04:	021d      	.short	0x021d
10000f06:	f990 3115 	ldrsb.w	r3, [r0, #277]	@ 0x115
10000f0a:	f8b1 c000 	ldrh.w	ip, [r1]
10000f0e:	4463      	add	r3, ip
10000f10:	800b      	strh	r3, [r1, #0]
10000f12:	8813      	ldrh	r3, [r2, #0]
10000f14:	f8d0 4110 	ldr.w	r4, [r0, #272]	@ 0x110
10000f18:	f8b4 c002 	ldrh.w	ip, [r4, #2]
10000f1c:	459c      	cmp	ip, r3
10000f1e:	d806      	bhi.n	10000f2e <st7735s_drv::change(unsigned short&, unsigned short&)+0x3a>
10000f20:	eba3 030c 	sub.w	r3, r3, ip
10000f24:	8013      	strh	r3, [r2, #0]
10000f26:	f8d0 3110 	ldr.w	r3, [r0, #272]	@ 0x110
10000f2a:	f8b3 c002 	ldrh.w	ip, [r3, #2]
10000f2e:	880b      	ldrh	r3, [r1, #0]
10000f30:	4563      	cmp	r3, ip
10000f32:	bf24      	itt	cs
10000f34:	eba3 030c 	subcs.w	r3, r3, ip
10000f38:	800b      	strhcs	r3, [r1, #0]
10000f3a:	bd10      	pop	{r4, pc}
10000f3c:	f8d0 3110 	ldr.w	r3, [r0, #272]	@ 0x110
10000f40:	f8b1 c000 	ldrh.w	ip, [r1]
10000f44:	f8b3 e002 	ldrh.w	lr, [r3, #2]
10000f48:	f10c 3cff 	add.w	ip, ip, #4294967295	@ 0xffffffff
10000f4c:	7a5b      	ldrb	r3, [r3, #9]
10000f4e:	44f4      	add	ip, lr
10000f50:	4463      	add	r3, ip
10000f52:	f990 c115 	ldrsb.w	ip, [r0, #277]	@ 0x115
10000f56:	eba3 030c 	sub.w	r3, r3, ip
10000f5a:	800b      	strh	r3, [r1, #0]
10000f5c:	8813      	ldrh	r3, [r2, #0]
10000f5e:	e7d9      	b.n	10000f14 <st7735s_drv::change(unsigned short&, unsigned short&)+0x20>
10000f60:	f8d0 3110 	ldr.w	r3, [r0, #272]	@ 0x110
10000f64:	f8b2 c000 	ldrh.w	ip, [r2]
10000f68:	f8b3 e002 	ldrh.w	lr, [r3, #2]
10000f6c:	f10c 3cff 	add.w	ip, ip, #4294967295	@ 0xffffffff
10000f70:	7a5b      	ldrb	r3, [r3, #9]
10000f72:	44f4      	add	ip, lr
10000f74:	4463      	add	r3, ip
10000f76:	f990 c115 	ldrsb.w	ip, [r0, #277]	@ 0x115
10000f7a:	eba3 030c 	sub.w	r3, r3, ip
10000f7e:	b29b      	uxth	r3, r3
10000f80:	8013      	strh	r3, [r2, #0]
10000f82:	e7c7      	b.n	10000f14 <st7735s_drv::change(unsigned short&, unsigned short&)+0x20>
10000f84:	f990 3115 	ldrsb.w	r3, [r0, #277]	@ 0x115
10000f88:	f8b2 c000 	ldrh.w	ip, [r2]
10000f8c:	4463      	add	r3, ip
10000f8e:	b29b      	uxth	r3, r3
10000f90:	8013      	strh	r3, [r2, #0]
10000f92:	e7bf      	b.n	10000f14 <st7735s_drv::change(unsigned short&, unsigned short&)+0x20>

10000f94 <st7735s_drv::setFrame(unsigned short, unsigned short, unsigned short, unsigned short)>:
10000f94:	e92d 43f0 	stmdb	sp!, {r4, r5, r6, r7, r8, r9, lr}
10000f98:	461f      	mov	r7, r3
10000f9a:	f890 3114 	ldrb.w	r3, [r0, #276]	@ 0x114
10000f9e:	b083      	sub	sp, #12
10000fa0:	4604      	mov	r4, r0
10000fa2:	460e      	mov	r6, r1
10000fa4:	4615      	mov	r5, r2
10000fa6:	f8bd 8028 	ldrh.w	r8, [sp, #40]	@ 0x28
10000faa:	2b03      	cmp	r3, #3
10000fac:	d815      	bhi.n	10000fda <st7735s_drv::setFrame(unsigned short, unsigned short, unsigned short, unsigned short)+0x46>
10000fae:	e8df f003 	tbb	[pc, r3]
10000fb2:	787d      	.short	0x787d
10000fb4:	0265      	.short	0x0265
10000fb6:	f8d0 2110 	ldr.w	r2, [r0, #272]	@ 0x110
10000fba:	8811      	ldrh	r1, [r2, #0]
10000fbc:	8893      	ldrh	r3, [r2, #4]
10000fbe:	1a5b      	subs	r3, r3, r1
10000fc0:	7a11      	ldrb	r1, [r2, #8]
10000fc2:	7a52      	ldrb	r2, [r2, #9]
10000fc4:	1a5b      	subs	r3, r3, r1
10000fc6:	b29b      	uxth	r3, r3
10000fc8:	4416      	add	r6, r2
10000fca:	441d      	add	r5, r3
10000fcc:	443a      	add	r2, r7
10000fce:	4443      	add	r3, r8
10000fd0:	b2b6      	uxth	r6, r6
10000fd2:	b2ad      	uxth	r5, r5
10000fd4:	b297      	uxth	r7, r2
10000fd6:	fa1f f883 	uxth.w	r8, r3
10000fda:	232a      	movs	r3, #42	@ 0x2a
10000fdc:	f8d4 010c 	ldr.w	r0, [r4, #268]	@ 0x10c
10000fe0:	f88d 3006 	strb.w	r3, [sp, #6]
10000fe4:	6803      	ldr	r3, [r0, #0]
10000fe6:	2100      	movs	r1, #0
10000fe8:	691b      	ldr	r3, [r3, #16]
10000fea:	4798      	blx	r3
10000fec:	f8d4 0104 	ldr.w	r0, [r4, #260]	@ 0x104
10000ff0:	f10d 0106 	add.w	r1, sp, #6
10000ff4:	6802      	ldr	r2, [r0, #0]
10000ff6:	2301      	movs	r3, #1
10000ff8:	f8d2 9000 	ldr.w	r9, [r2]
10000ffc:	f10d 0207 	add.w	r2, sp, #7
10001000:	47c8      	blx	r9
10001002:	f8d4 010c 	ldr.w	r0, [r4, #268]	@ 0x10c
10001006:	2101      	movs	r1, #1
10001008:	6803      	ldr	r3, [r0, #0]
1000100a:	691b      	ldr	r3, [r3, #16]
1000100c:	4798      	blx	r3
1000100e:	7166      	strb	r6, [r4, #5]
10001010:	2600      	movs	r6, #0
10001012:	f8d4 0104 	ldr.w	r0, [r4, #260]	@ 0x104
10001016:	71e7      	strb	r7, [r4, #7]
10001018:	7126      	strb	r6, [r4, #4]
1000101a:	71a6      	strb	r6, [r4, #6]
1000101c:	6803      	ldr	r3, [r0, #0]
1000101e:	1d27      	adds	r7, r4, #4
10001020:	2204      	movs	r2, #4
10001022:	4639      	mov	r1, r7
10001024:	685b      	ldr	r3, [r3, #4]
10001026:	4798      	blx	r3
10001028:	232b      	movs	r3, #43	@ 0x2b
1000102a:	f8d4 010c 	ldr.w	r0, [r4, #268]	@ 0x10c
1000102e:	f88d 3006 	strb.w	r3, [sp, #6]
10001032:	6803      	ldr	r3, [r0, #0]
10001034:	4631      	mov	r1, r6
10001036:	691b      	ldr	r3, [r3, #16]
10001038:	4798      	blx	r3
1000103a:	f8d4 0104 	ldr.w	r0, [r4, #260]	@ 0x104
1000103e:	f10d 0207 	add.w	r2, sp, #7
10001042:	f8d0 c000 	ldr.w	ip, [r0]
10001046:	f10d 0106 	add.w	r1, sp, #6
1000104a:	f8dc 9000 	ldr.w	r9, [ip]
1000104e:	2301      	movs	r3, #1
10001050:	47c8      	blx	r9
10001052:	f8d4 010c 	ldr.w	r0, [r4, #268]	@ 0x10c
10001056:	2101      	movs	r1, #1
10001058:	6803      	ldr	r3, [r0, #0]
1000105a:	691b      	ldr	r3, [r3, #16]
1000105c:	4798      	blx	r3
1000105e:	2204      	movs	r2, #4
10001060:	4639      	mov	r1, r7
10001062:	f8d4 0104 	ldr.w	r0, [r4, #260]	@ 0x104
10001066:	7126      	strb	r6, [r4, #4]
10001068:	7165      	strb	r5, [r4, #5]
1000106a:	71a6      	strb	r6, [r4, #6]
1000106c:	f884 8007 	strb.w	r8, [r4, #7]
10001070:	6803      	ldr	r3, [r0, #0]
10001072:	685b      	ldr	r3, [r3, #4]
10001074:	b003      	add	sp, #12
10001076:	e8bd 43f0 	ldmia.w	sp!, {r4, r5, r6, r7, r8, r9, lr}
1000107a:	4718      	bx	r3
1000107c:	f8d0 2110 	ldr.w	r2, [r0, #272]	@ 0x110
10001080:	8851      	ldrh	r1, [r2, #2]
10001082:	88d3      	ldrh	r3, [r2, #6]
10001084:	1a5b      	subs	r3, r3, r1
10001086:	7a51      	ldrb	r1, [r2, #9]
10001088:	7a12      	ldrb	r2, [r2, #8]
1000108a:	1a5b      	subs	r3, r3, r1
1000108c:	b29b      	uxth	r3, r3
1000108e:	441e      	add	r6, r3
10001090:	4415      	add	r5, r2
10001092:	443b      	add	r3, r7
10001094:	4442      	add	r2, r8
10001096:	b2b6      	uxth	r6, r6
10001098:	b2ad      	uxth	r5, r5
1000109a:	b29f      	uxth	r7, r3
1000109c:	fa1f f882 	uxth.w	r8, r2
100010a0:	e79b      	b.n	10000fda <st7735s_drv::setFrame(unsigned short, unsigned short, unsigned short, unsigned short)+0x46>
100010a2:	f8d0 3110 	ldr.w	r3, [r0, #272]	@ 0x110
100010a6:	7a1a      	ldrb	r2, [r3, #8]
100010a8:	7a5b      	ldrb	r3, [r3, #9]
100010aa:	e78d      	b.n	10000fc8 <st7735s_drv::setFrame(unsigned short, unsigned short, unsigned short, unsigned short)+0x34>
100010ac:	f8d0 1110 	ldr.w	r1, [r0, #272]	@ 0x110
100010b0:	880b      	ldrh	r3, [r1, #0]
100010b2:	888a      	ldrh	r2, [r1, #4]
100010b4:	8848      	ldrh	r0, [r1, #2]
100010b6:	1ad2      	subs	r2, r2, r3
100010b8:	88cb      	ldrh	r3, [r1, #6]
100010ba:	1a1b      	subs	r3, r3, r0
100010bc:	7a08      	ldrb	r0, [r1, #8]
100010be:	7a49      	ldrb	r1, [r1, #9]
100010c0:	1a12      	subs	r2, r2, r0
100010c2:	1a5b      	subs	r3, r3, r1
100010c4:	b292      	uxth	r2, r2
100010c6:	e77e      	b.n	10000fc6 <st7735s_drv::setFrame(unsigned short, unsigned short, unsigned short, unsigned short)+0x32>

100010c8 <st7735s_drv::drawPixel(unsigned short, unsigned short, unsigned long)>:
100010c8:	b5f0      	push	{r4, r5, r6, r7, lr}
100010ca:	b087      	sub	sp, #28
100010cc:	f8ad 200c 	strh.w	r2, [sp, #12]
100010d0:	f003 427f 	and.w	r2, r3, #4278190080	@ 0xff000000
100010d4:	f1b2 7f80 	cmp.w	r2, #16777216	@ 0x1000000
100010d8:	4604      	mov	r4, r0
100010da:	f8ad 100e 	strh.w	r1, [sp, #14]
100010de:	d04f      	beq.n	10001180 <st7735s_drv::drawPixel(unsigned short, unsigned short, unsigned long)+0xb8>
100010e0:	2a00      	cmp	r2, #0
100010e2:	d14a      	bne.n	1000117a <st7735s_drv::drawPixel(unsigned short, unsigned short, unsigned long)+0xb2>
100010e4:	0a1d      	lsrs	r5, r3, #8
100010e6:	f3c3 02c4 	ubfx	r2, r3, #3, #5
100010ea:	f405 4578 	and.w	r5, r5, #63488	@ 0xf800
100010ee:	095b      	lsrs	r3, r3, #5
100010f0:	4315      	orrs	r5, r2
100010f2:	f403 63fc 	and.w	r3, r3, #2016	@ 0x7e0
100010f6:	431d      	orrs	r5, r3
100010f8:	0a2e      	lsrs	r6, r5, #8
100010fa:	b2ed      	uxtb	r5, r5
100010fc:	4620      	mov	r0, r4
100010fe:	aa03      	add	r2, sp, #12
10001100:	f10d 010e 	add.w	r1, sp, #14
10001104:	f7ff fef6 	bl	10000ef4 <st7735s_drv::change(unsigned short&, unsigned short&)>
10001108:	f8d4 0118 	ldr.w	r0, [r4, #280]	@ 0x118
1000110c:	b110      	cbz	r0, 10001114 <st7735s_drv::drawPixel(unsigned short, unsigned short, unsigned long)+0x4c>
1000110e:	6803      	ldr	r3, [r0, #0]
10001110:	681b      	ldr	r3, [r3, #0]
10001112:	4798      	blx	r3
10001114:	f8bd 200c 	ldrh.w	r2, [sp, #12]
10001118:	f8bd 300e 	ldrh.w	r3, [sp, #14]
1000111c:	9200      	str	r2, [sp, #0]
1000111e:	4619      	mov	r1, r3
10001120:	4620      	mov	r0, r4
10001122:	f7ff ff37 	bl	10000f94 <st7735s_drv::setFrame(unsigned short, unsigned short, unsigned short, unsigned short)>
10001126:	232c      	movs	r3, #44	@ 0x2c
10001128:	f8d4 010c 	ldr.w	r0, [r4, #268]	@ 0x10c
1000112c:	f88d 3016 	strb.w	r3, [sp, #22]
10001130:	6803      	ldr	r3, [r0, #0]
10001132:	2100      	movs	r1, #0
10001134:	691b      	ldr	r3, [r3, #16]
10001136:	4798      	blx	r3
10001138:	f8d4 0104 	ldr.w	r0, [r4, #260]	@ 0x104
1000113c:	f10d 0217 	add.w	r2, sp, #23
10001140:	6801      	ldr	r1, [r0, #0]
10001142:	2301      	movs	r3, #1
10001144:	680f      	ldr	r7, [r1, #0]
10001146:	f10d 0116 	add.w	r1, sp, #22
1000114a:	47b8      	blx	r7
1000114c:	f8d4 010c 	ldr.w	r0, [r4, #268]	@ 0x10c
10001150:	2101      	movs	r1, #1
10001152:	6803      	ldr	r3, [r0, #0]
10001154:	691b      	ldr	r3, [r3, #16]
10001156:	4798      	blx	r3
10001158:	f8d4 0104 	ldr.w	r0, [r4, #260]	@ 0x104
1000115c:	7126      	strb	r6, [r4, #4]
1000115e:	7165      	strb	r5, [r4, #5]
10001160:	6803      	ldr	r3, [r0, #0]
10001162:	2202      	movs	r2, #2
10001164:	685b      	ldr	r3, [r3, #4]
10001166:	1d21      	adds	r1, r4, #4
10001168:	4798      	blx	r3
1000116a:	f8d4 0118 	ldr.w	r0, [r4, #280]	@ 0x118
1000116e:	b110      	cbz	r0, 10001176 <st7735s_drv::drawPixel(unsigned short, unsigned short, unsigned long)+0xae>
10001170:	6803      	ldr	r3, [r0, #0]
10001172:	685b      	ldr	r3, [r3, #4]
10001174:	4798      	blx	r3
10001176:	b007      	add	sp, #28
10001178:	bdf0      	pop	{r4, r5, r6, r7, pc}
1000117a:	2500      	movs	r5, #0
1000117c:	462e      	mov	r6, r5
1000117e:	e7bd      	b.n	100010fc <st7735s_drv::drawPixel(unsigned short, unsigned short, unsigned long)+0x34>
10001180:	f3c3 2607 	ubfx	r6, r3, #8, #8
10001184:	b2dd      	uxtb	r5, r3
10001186:	e7b9      	b.n	100010fc <st7735s_drv::drawPixel(unsigned short, unsigned short, unsigned long)+0x34>

10001188 <st7735s_drv::drawHLine(unsigned short, unsigned short, unsigned short, unsigned long)>:
10001188:	e92d 41f0 	stmdb	sp!, {r4, r5, r6, r7, r8, lr}
1000118c:	b086      	sub	sp, #24
1000118e:	9e0c      	ldr	r6, [sp, #48]	@ 0x30
10001190:	4604      	mov	r4, r0
10001192:	f006 457f 	and.w	r5, r6, #4278190080	@ 0xff000000
10001196:	f1b5 7f80 	cmp.w	r5, #16777216	@ 0x1000000
1000119a:	f8ad 100e 	strh.w	r1, [sp, #14]
1000119e:	f8ad 200c 	strh.w	r2, [sp, #12]
100011a2:	f8ad 300a 	strh.w	r3, [sp, #10]
100011a6:	d00d      	beq.n	100011c4 <st7735s_drv::drawHLine(unsigned short, unsigned short, unsigned short, unsigned long)+0x3c>
100011a8:	2d00      	cmp	r5, #0
100011aa:	d177      	bne.n	1000129c <st7735s_drv::drawHLine(unsigned short, unsigned short, unsigned short, unsigned long)+0x114>
100011ac:	0a33      	lsrs	r3, r6, #8
100011ae:	f3c6 02c4 	ubfx	r2, r6, #3, #5
100011b2:	f403 4378 	and.w	r3, r3, #63488	@ 0xf800
100011b6:	0976      	lsrs	r6, r6, #5
100011b8:	f406 66fc 	and.w	r6, r6, #2016	@ 0x7e0
100011bc:	4313      	orrs	r3, r2
100011be:	4333      	orrs	r3, r6
100011c0:	f043 7680 	orr.w	r6, r3, #16777216	@ 0x1000000
100011c4:	4620      	mov	r0, r4
100011c6:	aa03      	add	r2, sp, #12
100011c8:	f10d 010e 	add.w	r1, sp, #14
100011cc:	f7ff fe92 	bl	10000ef4 <st7735s_drv::change(unsigned short&, unsigned short&)>
100011d0:	f10d 0216 	add.w	r2, sp, #22
100011d4:	f10d 010a 	add.w	r1, sp, #10
100011d8:	f7ff fe8c 	bl	10000ef4 <st7735s_drv::change(unsigned short&, unsigned short&)>
100011dc:	f8d4 0118 	ldr.w	r0, [r4, #280]	@ 0x118
100011e0:	b110      	cbz	r0, 100011e8 <st7735s_drv::drawHLine(unsigned short, unsigned short, unsigned short, unsigned long)+0x60>
100011e2:	6803      	ldr	r3, [r0, #0]
100011e4:	681b      	ldr	r3, [r3, #0]
100011e6:	4798      	blx	r3
100011e8:	f8bd 200c 	ldrh.w	r2, [sp, #12]
100011ec:	f8bd 700e 	ldrh.w	r7, [sp, #14]
100011f0:	f8bd 500a 	ldrh.w	r5, [sp, #10]
100011f4:	9200      	str	r2, [sp, #0]
100011f6:	462b      	mov	r3, r5
100011f8:	4639      	mov	r1, r7
100011fa:	4620      	mov	r0, r4
100011fc:	f7ff feca 	bl	10000f94 <st7735s_drv::setFrame(unsigned short, unsigned short, unsigned short, unsigned short)>
10001200:	232c      	movs	r3, #44	@ 0x2c
10001202:	f8d4 010c 	ldr.w	r0, [r4, #268]	@ 0x10c
10001206:	f88d 3014 	strb.w	r3, [sp, #20]
1000120a:	6803      	ldr	r3, [r0, #0]
1000120c:	2100      	movs	r1, #0
1000120e:	691b      	ldr	r3, [r3, #16]
10001210:	4798      	blx	r3
10001212:	f8d4 0104 	ldr.w	r0, [r4, #260]	@ 0x104
10001216:	2301      	movs	r3, #1
10001218:	6801      	ldr	r1, [r0, #0]
1000121a:	f10d 0215 	add.w	r2, sp, #21
1000121e:	f8d1 8000 	ldr.w	r8, [r1]
10001222:	a905      	add	r1, sp, #20
10001224:	47c0      	blx	r8
10001226:	f8d4 010c 	ldr.w	r0, [r4, #268]	@ 0x10c
1000122a:	2101      	movs	r1, #1
1000122c:	6803      	ldr	r3, [r0, #0]
1000122e:	691b      	ldr	r3, [r3, #16]
10001230:	4798      	blx	r3
10001232:	42af      	cmp	r7, r5
10001234:	d834      	bhi.n	100012a0 <st7735s_drv::drawHLine(unsigned short, unsigned short, unsigned short, unsigned long)+0x118>
10001236:	f105 0201 	add.w	r2, r5, #1
1000123a:	eba2 0207 	sub.w	r2, r2, r7
1000123e:	f3c6 2707 	ubfx	r7, r6, #8, #8
10001242:	b2f6      	uxtb	r6, r6
10001244:	d02f      	beq.n	100012a6 <st7735s_drv::drawHLine(unsigned short, unsigned short, unsigned short, unsigned long)+0x11e>
10001246:	2000      	movs	r0, #0
10001248:	1d21      	adds	r1, r4, #4
1000124a:	460b      	mov	r3, r1
1000124c:	f367 0007 	bfi	r0, r7, #0, #8
10001250:	0855      	lsrs	r5, r2, #1
10001252:	f366 200f 	bfi	r0, r6, #8, #8
10001256:	3501      	adds	r5, #1
10001258:	f367 4017 	bfi	r0, r7, #16, #8
1000125c:	eb04 0585 	add.w	r5, r4, r5, lsl #2
10001260:	f366 601f 	bfi	r0, r6, #24, #8
10001264:	f843 0b04 	str.w	r0, [r3], #4
10001268:	42ab      	cmp	r3, r5
1000126a:	d1fb      	bne.n	10001264 <st7735s_drv::drawHLine(unsigned short, unsigned short, unsigned short, unsigned long)+0xdc>
1000126c:	07d3      	lsls	r3, r2, #31
1000126e:	d505      	bpl.n	1000127c <st7735s_drv::drawHLine(unsigned short, unsigned short, unsigned short, unsigned long)+0xf4>
10001270:	f022 0301 	bic.w	r3, r2, #1
10001274:	005b      	lsls	r3, r3, #1
10001276:	4423      	add	r3, r4
10001278:	711f      	strb	r7, [r3, #4]
1000127a:	715e      	strb	r6, [r3, #5]
1000127c:	0052      	lsls	r2, r2, #1
1000127e:	b292      	uxth	r2, r2
10001280:	f8d4 0104 	ldr.w	r0, [r4, #260]	@ 0x104
10001284:	6803      	ldr	r3, [r0, #0]
10001286:	685b      	ldr	r3, [r3, #4]
10001288:	4798      	blx	r3
1000128a:	f8d4 0118 	ldr.w	r0, [r4, #280]	@ 0x118
1000128e:	b110      	cbz	r0, 10001296 <st7735s_drv::drawHLine(unsigned short, unsigned short, unsigned short, unsigned long)+0x10e>
10001290:	6803      	ldr	r3, [r0, #0]
10001292:	685b      	ldr	r3, [r3, #4]
10001294:	4798      	blx	r3
10001296:	b006      	add	sp, #24
10001298:	e8bd 81f0 	ldmia.w	sp!, {r4, r5, r6, r7, r8, pc}
1000129c:	2600      	movs	r6, #0
1000129e:	e791      	b.n	100011c4 <st7735s_drv::drawHLine(unsigned short, unsigned short, unsigned short, unsigned long)+0x3c>
100012a0:	2200      	movs	r2, #0
100012a2:	1d21      	adds	r1, r4, #4
100012a4:	e7ec      	b.n	10001280 <st7735s_drv::drawHLine(unsigned short, unsigned short, unsigned short, unsigned long)+0xf8>
100012a6:	2300      	movs	r3, #0
100012a8:	1d21      	adds	r1, r4, #4
100012aa:	e7e4      	b.n	10001276 <st7735s_drv::drawHLine(unsigned short, unsigned short, unsigned short, unsigned long)+0xee>

100012ac <st7735s_drv::drawVLine(unsigned short, unsigned short, unsigned short, unsigned long)>:
100012ac:	e92d 41f0 	stmdb	sp!, {r4, r5, r6, r7, r8, lr}
100012b0:	b086      	sub	sp, #24
100012b2:	9e0c      	ldr	r6, [sp, #48]	@ 0x30
100012b4:	4604      	mov	r4, r0
100012b6:	f006 457f 	and.w	r5, r6, #4278190080	@ 0xff000000
100012ba:	f1b5 7f80 	cmp.w	r5, #16777216	@ 0x1000000
100012be:	f8ad 100e 	strh.w	r1, [sp, #14]
100012c2:	f8ad 200c 	strh.w	r2, [sp, #12]
100012c6:	f8ad 300a 	strh.w	r3, [sp, #10]
100012ca:	d00d      	beq.n	100012e8 <st7735s_drv::drawVLine(unsigned short, unsigned short, unsigned short, unsigned long)+0x3c>
100012cc:	2d00      	cmp	r5, #0
100012ce:	d177      	bne.n	100013c0 <st7735s_drv::drawVLine(unsigned short, unsigned short, unsigned short, unsigned long)+0x114>
100012d0:	0a33      	lsrs	r3, r6, #8
100012d2:	f3c6 02c4 	ubfx	r2, r6, #3, #5
100012d6:	f403 4378 	and.w	r3, r3, #63488	@ 0xf800
100012da:	0976      	lsrs	r6, r6, #5
100012dc:	f406 66fc 	and.w	r6, r6, #2016	@ 0x7e0
100012e0:	4313      	orrs	r3, r2
100012e2:	4333      	orrs	r3, r6
100012e4:	f043 7680 	orr.w	r6, r3, #16777216	@ 0x1000000
100012e8:	4620      	mov	r0, r4
100012ea:	aa03      	add	r2, sp, #12
100012ec:	f10d 010e 	add.w	r1, sp, #14
100012f0:	f7ff fe00 	bl	10000ef4 <st7735s_drv::change(unsigned short&, unsigned short&)>
100012f4:	f10d 020a 	add.w	r2, sp, #10
100012f8:	f10d 0116 	add.w	r1, sp, #22
100012fc:	f7ff fdfa 	bl	10000ef4 <st7735s_drv::change(unsigned short&, unsigned short&)>
10001300:	f8d4 0118 	ldr.w	r0, [r4, #280]	@ 0x118
10001304:	b110      	cbz	r0, 1000130c <st7735s_drv::drawVLine(unsigned short, unsigned short, unsigned short, unsigned long)+0x60>
10001306:	6803      	ldr	r3, [r0, #0]
10001308:	681b      	ldr	r3, [r3, #0]
1000130a:	4798      	blx	r3
1000130c:	f8bd 300e 	ldrh.w	r3, [sp, #14]
10001310:	f8bd 700c 	ldrh.w	r7, [sp, #12]
10001314:	f8bd 500a 	ldrh.w	r5, [sp, #10]
10001318:	4619      	mov	r1, r3
1000131a:	463a      	mov	r2, r7
1000131c:	4620      	mov	r0, r4
1000131e:	9500      	str	r5, [sp, #0]
10001320:	f7ff fe38 	bl	10000f94 <st7735s_drv::setFrame(unsigned short, unsigned short, unsigned short, unsigned short)>
10001324:	232c      	movs	r3, #44	@ 0x2c
10001326:	f8d4 010c 	ldr.w	r0, [r4, #268]	@ 0x10c
1000132a:	f88d 3014 	strb.w	r3, [sp, #20]
1000132e:	6803      	ldr	r3, [r0, #0]
10001330:	2100      	movs	r1, #0
10001332:	691b      	ldr	r3, [r3, #16]
10001334:	4798      	blx	r3
10001336:	f8d4 0104 	ldr.w	r0, [r4, #260]	@ 0x104
1000133a:	2301      	movs	r3, #1
1000133c:	6801      	ldr	r1, [r0, #0]
1000133e:	f10d 0215 	add.w	r2, sp, #21
10001342:	f8d1 8000 	ldr.w	r8, [r1]
10001346:	a905      	add	r1, sp, #20
10001348:	47c0      	blx	r8
1000134a:	f8d4 010c 	ldr.w	r0, [r4, #268]	@ 0x10c
1000134e:	2101      	movs	r1, #1
10001350:	6803      	ldr	r3, [r0, #0]
10001352:	691b      	ldr	r3, [r3, #16]
10001354:	4798      	blx	r3
10001356:	42af      	cmp	r7, r5
10001358:	d834      	bhi.n	100013c4 <st7735s_drv::drawVLine(unsigned short, unsigned short, unsigned short, unsigned long)+0x118>
1000135a:	f105 0201 	add.w	r2, r5, #1
1000135e:	eba2 0207 	sub.w	r2, r2, r7
10001362:	f3c6 2707 	ubfx	r7, r6, #8, #8
10001366:	b2f6      	uxtb	r6, r6
10001368:	d02f      	beq.n	100013ca <st7735s_drv::drawVLine(unsigned short, unsigned short, unsigned short, unsigned long)+0x11e>
1000136a:	2000      	movs	r0, #0
1000136c:	1d21      	adds	r1, r4, #4
1000136e:	460b      	mov	r3, r1
10001370:	f367 0007 	bfi	r0, r7, #0, #8
10001374:	0855      	lsrs	r5, r2, #1
10001376:	f366 200f 	bfi	r0, r6, #8, #8
1000137a:	3501      	adds	r5, #1
1000137c:	f367 4017 	bfi	r0, r7, #16, #8
10001380:	eb04 0585 	add.w	r5, r4, r5, lsl #2
10001384:	f366 601f 	bfi	r0, r6, #24, #8
10001388:	f843 0b04 	str.w	r0, [r3], #4
1000138c:	42ab      	cmp	r3, r5
1000138e:	d1fb      	bne.n	10001388 <st7735s_drv::drawVLine(unsigned short, unsigned short, unsigned short, unsigned long)+0xdc>
10001390:	07d3      	lsls	r3, r2, #31
10001392:	d505      	bpl.n	100013a0 <st7735s_drv::drawVLine(unsigned short, unsigned short, unsigned short, unsigned long)+0xf4>
10001394:	f022 0301 	bic.w	r3, r2, #1
10001398:	005b      	lsls	r3, r3, #1
1000139a:	4423      	add	r3, r4
1000139c:	711f      	strb	r7, [r3, #4]
1000139e:	715e      	strb	r6, [r3, #5]
100013a0:	0052      	lsls	r2, r2, #1
100013a2:	b292      	uxth	r2, r2
100013a4:	f8d4 0104 	ldr.w	r0, [r4, #260]	@ 0x104
100013a8:	6803      	ldr	r3, [r0, #0]
100013aa:	685b      	ldr	r3, [r3, #4]
100013ac:	4798      	blx	r3
100013ae:	f8d4 0118 	ldr.w	r0, [r4, #280]	@ 0x118
100013b2:	b110      	cbz	r0, 100013ba <st7735s_drv::drawVLine(unsigned short, unsigned short, unsigned short, unsigned long)+0x10e>
100013b4:	6803      	ldr	r3, [r0, #0]
100013b6:	685b      	ldr	r3, [r3, #4]
100013b8:	4798      	blx	r3
100013ba:	b006      	add	sp, #24
100013bc:	e8bd 81f0 	ldmia.w	sp!, {r4, r5, r6, r7, r8, pc}
100013c0:	2600      	movs	r6, #0
100013c2:	e791      	b.n	100012e8 <st7735s_drv::drawVLine(unsigned short, unsigned short, unsigned short, unsigned long)+0x3c>
100013c4:	2200      	movs	r2, #0
100013c6:	1d21      	adds	r1, r4, #4
100013c8:	e7ec      	b.n	100013a4 <st7735s_drv::drawVLine(unsigned short, unsigned short, unsigned short, unsigned long)+0xf8>
100013ca:	2300      	movs	r3, #0
100013cc:	1d21      	adds	r1, r4, #4
100013ce:	e7e4      	b.n	1000139a <st7735s_drv::drawVLine(unsigned short, unsigned short, unsigned short, unsigned long)+0xee>

100013d0 <st7735s_drv::drawArea(unsigned short, unsigned short, unsigned short, unsigned short, pixel_stream&)>:
100013d0:	e92d 4ff0 	stmdb	sp!, {r4, r5, r6, r7, r8, r9, sl, fp, lr}
100013d4:	b087      	sub	sp, #28
100013d6:	9e11      	ldr	r6, [sp, #68]	@ 0x44
100013d8:	f8df c180 	ldr.w	ip, [pc, #384]	@ 1000155c <st7735s_drv::drawArea(unsigned short, unsigned short, unsigned short, unsigned short, pixel_stream&)+0x18c>
100013dc:	6835      	ldr	r5, [r6, #0]
100013de:	4604      	mov	r4, r0
100013e0:	682f      	ldr	r7, [r5, #0]
100013e2:	f8ad 100e 	strh.w	r1, [sp, #14]
100013e6:	4567      	cmp	r7, ip
100013e8:	f8ad 200c 	strh.w	r2, [sp, #12]
100013ec:	f8ad 300a 	strh.w	r3, [sp, #10]
100013f0:	f040 80a6 	bne.w	10001540 <st7735s_drv::drawArea(unsigned short, unsigned short, unsigned short, unsigned short, pixel_stream&)+0x170>
100013f4:	6873      	ldr	r3, [r6, #4]
100013f6:	4a58      	ldr	r2, [pc, #352]	@ (10001558 <st7735s_drv::drawArea(unsigned short, unsigned short, unsigned short, unsigned short, pixel_stream&)+0x188>)
100013f8:	f003 487f 	and.w	r8, r3, #4278190080	@ 0xff000000
100013fc:	68ab      	ldr	r3, [r5, #8]
100013fe:	4293      	cmp	r3, r2
10001400:	f040 80a7 	bne.w	10001552 <st7735s_drv::drawArea(unsigned short, unsigned short, unsigned short, unsigned short, pixel_stream&)+0x182>
10001404:	4620      	mov	r0, r4
10001406:	aa03      	add	r2, sp, #12
10001408:	f10d 010e 	add.w	r1, sp, #14
1000140c:	f7ff fd72 	bl	10000ef4 <st7735s_drv::change(unsigned short&, unsigned short&)>
10001410:	aa10      	add	r2, sp, #64	@ 0x40
10001412:	f10d 010a 	add.w	r1, sp, #10
10001416:	f7ff fd6d 	bl	10000ef4 <st7735s_drv::change(unsigned short&, unsigned short&)>
1000141a:	f8d4 0118 	ldr.w	r0, [r4, #280]	@ 0x118
1000141e:	b110      	cbz	r0, 10001426 <st7735s_drv::drawArea(unsigned short, unsigned short, unsigned short, unsigned short, pixel_stream&)+0x56>
10001420:	6803      	ldr	r3, [r0, #0]
10001422:	681b      	ldr	r3, [r3, #0]
10001424:	4798      	blx	r3
10001426:	f8bd a00e 	ldrh.w	sl, [sp, #14]
1000142a:	f8bd 900c 	ldrh.w	r9, [sp, #12]
1000142e:	f8bd 500a 	ldrh.w	r5, [sp, #10]
10001432:	f8bd 7040 	ldrh.w	r7, [sp, #64]	@ 0x40
10001436:	462b      	mov	r3, r5
10001438:	464a      	mov	r2, r9
1000143a:	4651      	mov	r1, sl
1000143c:	4620      	mov	r0, r4
1000143e:	9700      	str	r7, [sp, #0]
10001440:	f7ff fda8 	bl	10000f94 <st7735s_drv::setFrame(unsigned short, unsigned short, unsigned short, unsigned short)>
10001444:	222c      	movs	r2, #44	@ 0x2c
10001446:	f8d4 010c 	ldr.w	r0, [r4, #268]	@ 0x10c
1000144a:	2100      	movs	r1, #0
1000144c:	6803      	ldr	r3, [r0, #0]
1000144e:	f88d 2016 	strb.w	r2, [sp, #22]
10001452:	691b      	ldr	r3, [r3, #16]
10001454:	4798      	blx	r3
10001456:	f8d4 0104 	ldr.w	r0, [r4, #260]	@ 0x104
1000145a:	eba5 050a 	sub.w	r5, r5, sl
1000145e:	6801      	ldr	r1, [r0, #0]
10001460:	eba7 0709 	sub.w	r7, r7, r9
10001464:	3501      	adds	r5, #1
10001466:	3701      	adds	r7, #1
10001468:	2301      	movs	r3, #1
1000146a:	fb15 f707 	smulbb	r7, r5, r7
1000146e:	f10d 0217 	add.w	r2, sp, #23
10001472:	680d      	ldr	r5, [r1, #0]
10001474:	f10d 0116 	add.w	r1, sp, #22
10001478:	47a8      	blx	r5
1000147a:	f8d4 010c 	ldr.w	r0, [r4, #268]	@ 0x10c
1000147e:	2101      	movs	r1, #1
10001480:	6803      	ldr	r3, [r0, #0]
10001482:	b23f      	sxth	r7, r7
10001484:	691b      	ldr	r3, [r3, #16]
10001486:	4798      	blx	r3
10001488:	2f00      	cmp	r7, #0
1000148a:	dd36      	ble.n	100014fa <st7735s_drv::drawArea(unsigned short, unsigned short, unsigned short, unsigned short, pixel_stream&)+0x12a>
1000148c:	2500      	movs	r5, #0
1000148e:	46ab      	mov	fp, r5
10001490:	f8df a0cc 	ldr.w	sl, [pc, #204]	@ 10001560 <st7735s_drv::drawArea(unsigned short, unsigned short, unsigned short, unsigned short, pixel_stream&)+0x190>
10001494:	f104 0904 	add.w	r9, r4, #4
10001498:	6833      	ldr	r3, [r6, #0]
1000149a:	685b      	ldr	r3, [r3, #4]
1000149c:	4553      	cmp	r3, sl
1000149e:	d149      	bne.n	10001534 <st7735s_drv::drawArea(unsigned short, unsigned short, unsigned short, unsigned short, pixel_stream&)+0x164>
100014a0:	6870      	ldr	r0, [r6, #4]
100014a2:	f1b8 7f80 	cmp.w	r8, #16777216	@ 0x1000000
100014a6:	d031      	beq.n	1000150c <st7735s_drv::drawArea(unsigned short, unsigned short, unsigned short, unsigned short, pixel_stream&)+0x13c>
100014a8:	f000 437f 	and.w	r3, r0, #4278190080	@ 0xff000000
100014ac:	f1b3 7f80 	cmp.w	r3, #16777216	@ 0x1000000
100014b0:	d02c      	beq.n	1000150c <st7735s_drv::drawArea(unsigned short, unsigned short, unsigned short, unsigned short, pixel_stream&)+0x13c>
100014b2:	2b00      	cmp	r3, #0
100014b4:	d141      	bne.n	1000153a <st7735s_drv::drawArea(unsigned short, unsigned short, unsigned short, unsigned short, pixel_stream&)+0x16a>
100014b6:	0a03      	lsrs	r3, r0, #8
100014b8:	f3c0 02c4 	ubfx	r2, r0, #3, #5
100014bc:	f403 4378 	and.w	r3, r3, #63488	@ 0xf800
100014c0:	0940      	lsrs	r0, r0, #5
100014c2:	4313      	orrs	r3, r2
100014c4:	f400 60fc 	and.w	r0, r0, #2016	@ 0x7e0
100014c8:	4303      	orrs	r3, r0
100014ca:	0a1a      	lsrs	r2, r3, #8
100014cc:	b2d8      	uxtb	r0, r3
100014ce:	465b      	mov	r3, fp
100014d0:	eb04 010b 	add.w	r1, r4, fp
100014d4:	f10b 0b02 	add.w	fp, fp, #2
100014d8:	4423      	add	r3, r4
100014da:	f5bb 7f80 	cmp.w	fp, #256	@ 0x100
100014de:	710a      	strb	r2, [r1, #4]
100014e0:	7158      	strb	r0, [r3, #5]
100014e2:	d017      	beq.n	10001514 <st7735s_drv::drawArea(unsigned short, unsigned short, unsigned short, unsigned short, pixel_stream&)+0x144>
100014e4:	3501      	adds	r5, #1
100014e6:	42bd      	cmp	r5, r7
100014e8:	d1d6      	bne.n	10001498 <st7735s_drv::drawArea(unsigned short, unsigned short, unsigned short, unsigned short, pixel_stream&)+0xc8>
100014ea:	f8d4 0104 	ldr.w	r0, [r4, #260]	@ 0x104
100014ee:	4649      	mov	r1, r9
100014f0:	6803      	ldr	r3, [r0, #0]
100014f2:	fa1f f28b 	uxth.w	r2, fp
100014f6:	685b      	ldr	r3, [r3, #4]
100014f8:	4798      	blx	r3
100014fa:	f8d4 0118 	ldr.w	r0, [r4, #280]	@ 0x118
100014fe:	b110      	cbz	r0, 10001506 <st7735s_drv::drawArea(unsigned short, unsigned short, unsigned short, unsigned short, pixel_stream&)+0x136>
10001500:	6803      	ldr	r3, [r0, #0]
10001502:	685b      	ldr	r3, [r3, #4]
10001504:	4798      	blx	r3
10001506:	b007      	add	sp, #28
10001508:	e8bd 8ff0 	ldmia.w	sp!, {r4, r5, r6, r7, r8, r9, sl, fp, pc}
1000150c:	f3c0 2207 	ubfx	r2, r0, #8, #8
10001510:	b2c0      	uxtb	r0, r0
10001512:	e7dc      	b.n	100014ce <st7735s_drv::drawArea(unsigned short, unsigned short, unsigned short, unsigned short, pixel_stream&)+0xfe>
10001514:	f8d4 0104 	ldr.w	r0, [r4, #260]	@ 0x104
10001518:	465a      	mov	r2, fp
1000151a:	6803      	ldr	r3, [r0, #0]
1000151c:	4649      	mov	r1, r9
1000151e:	685b      	ldr	r3, [r3, #4]
10001520:	3501      	adds	r5, #1
10001522:	4798      	blx	r3
10001524:	42af      	cmp	r7, r5
10001526:	d0e8      	beq.n	100014fa <st7735s_drv::drawArea(unsigned short, unsigned short, unsigned short, unsigned short, pixel_stream&)+0x12a>
10001528:	6833      	ldr	r3, [r6, #0]
1000152a:	f04f 0b00 	mov.w	fp, #0
1000152e:	685b      	ldr	r3, [r3, #4]
10001530:	4553      	cmp	r3, sl
10001532:	d0b5      	beq.n	100014a0 <st7735s_drv::drawArea(unsigned short, unsigned short, unsigned short, unsigned short, pixel_stream&)+0xd0>
10001534:	4630      	mov	r0, r6
10001536:	4798      	blx	r3
10001538:	e7b3      	b.n	100014a2 <st7735s_drv::drawArea(unsigned short, unsigned short, unsigned short, unsigned short, pixel_stream&)+0xd2>
1000153a:	2000      	movs	r0, #0
1000153c:	4602      	mov	r2, r0
1000153e:	e7c6      	b.n	100014ce <st7735s_drv::drawArea(unsigned short, unsigned short, unsigned short, unsigned short, pixel_stream&)+0xfe>
10001540:	4630      	mov	r0, r6
10001542:	47b8      	blx	r7
10001544:	6835      	ldr	r5, [r6, #0]
10001546:	4a04      	ldr	r2, [pc, #16]	@ (10001558 <st7735s_drv::drawArea(unsigned short, unsigned short, unsigned short, unsigned short, pixel_stream&)+0x188>)
10001548:	68ab      	ldr	r3, [r5, #8]
1000154a:	4680      	mov	r8, r0
1000154c:	4293      	cmp	r3, r2
1000154e:	f43f af59 	beq.w	10001404 <st7735s_drv::drawArea(unsigned short, unsigned short, unsigned short, unsigned short, pixel_stream&)+0x34>
10001552:	4630      	mov	r0, r6
10001554:	4798      	blx	r3
10001556:	e755      	b.n	10001404 <st7735s_drv::drawArea(unsigned short, unsigned short, unsigned short, unsigned short, pixel_stream&)+0x34>
10001558:	10000ae1 	.word	0x10000ae1
1000155c:	10000ad9 	.word	0x10000ad9
10001560:	10000ad5 	.word	0x10000ad5

10001564 <st7735s_drv::fillArea(unsigned short, unsigned short, unsigned short, unsigned short, unsigned long)>:
10001564:	e92d 43f0 	stmdb	sp!, {r4, r5, r6, r7, r8, r9, lr}
10001568:	b089      	sub	sp, #36	@ 0x24
1000156a:	9d11      	ldr	r5, [sp, #68]	@ 0x44
1000156c:	4604      	mov	r4, r0
1000156e:	f005 467f 	and.w	r6, r5, #4278190080	@ 0xff000000
10001572:	f1b6 7f80 	cmp.w	r6, #16777216	@ 0x1000000
10001576:	f8bd 7040 	ldrh.w	r7, [sp, #64]	@ 0x40
1000157a:	d00e      	beq.n	1000159a <st7735s_drv::fillArea(unsigned short, unsigned short, unsigned short, unsigned short, unsigned long)+0x36>
1000157c:	2e00      	cmp	r6, #0
1000157e:	f040 809f 	bne.w	100016c0 <st7735s_drv::fillArea(unsigned short, unsigned short, unsigned short, unsigned short, unsigned long)+0x15c>
10001582:	0a28      	lsrs	r0, r5, #8
10001584:	f3c5 06c4 	ubfx	r6, r5, #3, #5
10001588:	f400 4078 	and.w	r0, r0, #63488	@ 0xf800
1000158c:	096d      	lsrs	r5, r5, #5
1000158e:	f405 65fc 	and.w	r5, r5, #2016	@ 0x7e0
10001592:	4330      	orrs	r0, r6
10001594:	4328      	orrs	r0, r5
10001596:	f040 7580 	orr.w	r5, r0, #16777216	@ 0x1000000
1000159a:	6820      	ldr	r0, [r4, #0]
1000159c:	9507      	str	r5, [sp, #28]
1000159e:	6946      	ldr	r6, [r0, #20]
100015a0:	4868      	ldr	r0, [pc, #416]	@ (10001744 <st7735s_drv::fillArea(unsigned short, unsigned short, unsigned short, unsigned short, unsigned long)+0x1e0>)
100015a2:	9006      	str	r0, [sp, #24]
100015a4:	4868      	ldr	r0, [pc, #416]	@ (10001748 <st7735s_drv::fillArea(unsigned short, unsigned short, unsigned short, unsigned short, unsigned long)+0x1e4>)
100015a6:	4286      	cmp	r6, r0
100015a8:	f040 80c4 	bne.w	10001734 <st7735s_drv::fillArea(unsigned short, unsigned short, unsigned short, unsigned short, unsigned long)+0x1d0>
100015ac:	4620      	mov	r0, r4
100015ae:	f8ad 1010 	strh.w	r1, [sp, #16]
100015b2:	f8ad 2012 	strh.w	r2, [sp, #18]
100015b6:	a904      	add	r1, sp, #16
100015b8:	f10d 0212 	add.w	r2, sp, #18
100015bc:	f8ad 3014 	strh.w	r3, [sp, #20]
100015c0:	f8ad 7016 	strh.w	r7, [sp, #22]
100015c4:	f7ff fc96 	bl	10000ef4 <st7735s_drv::change(unsigned short&, unsigned short&)>
100015c8:	f10d 0216 	add.w	r2, sp, #22
100015cc:	a905      	add	r1, sp, #20
100015ce:	f7ff fc91 	bl	10000ef4 <st7735s_drv::change(unsigned short&, unsigned short&)>
100015d2:	f8d4 0118 	ldr.w	r0, [r4, #280]	@ 0x118
100015d6:	f005 467f 	and.w	r6, r5, #4278190080	@ 0xff000000
100015da:	b110      	cbz	r0, 100015e2 <st7735s_drv::fillArea(unsigned short, unsigned short, unsigned short, unsigned short, unsigned long)+0x7e>
100015dc:	6803      	ldr	r3, [r0, #0]
100015de:	681b      	ldr	r3, [r3, #0]
100015e0:	4798      	blx	r3
100015e2:	f8bd 9010 	ldrh.w	r9, [sp, #16]
100015e6:	f8bd 8012 	ldrh.w	r8, [sp, #18]
100015ea:	f8bd 5014 	ldrh.w	r5, [sp, #20]
100015ee:	f8bd 7016 	ldrh.w	r7, [sp, #22]
100015f2:	462b      	mov	r3, r5
100015f4:	4642      	mov	r2, r8
100015f6:	4649      	mov	r1, r9
100015f8:	4620      	mov	r0, r4
100015fa:	9700      	str	r7, [sp, #0]
100015fc:	f7ff fcca 	bl	10000f94 <st7735s_drv::setFrame(unsigned short, unsigned short, unsigned short, unsigned short)>
10001600:	222c      	movs	r2, #44	@ 0x2c
10001602:	f8d4 010c 	ldr.w	r0, [r4, #268]	@ 0x10c
10001606:	2100      	movs	r1, #0
10001608:	6803      	ldr	r3, [r0, #0]
1000160a:	f88d 200e 	strb.w	r2, [sp, #14]
1000160e:	691b      	ldr	r3, [r3, #16]
10001610:	4798      	blx	r3
10001612:	f8d4 0104 	ldr.w	r0, [r4, #260]	@ 0x104
10001616:	eba5 0509 	sub.w	r5, r5, r9
1000161a:	6801      	ldr	r1, [r0, #0]
1000161c:	eba7 0708 	sub.w	r7, r7, r8
10001620:	3701      	adds	r7, #1
10001622:	3501      	adds	r5, #1
10001624:	2301      	movs	r3, #1
10001626:	fb15 f507 	smulbb	r5, r5, r7
1000162a:	f10d 020f 	add.w	r2, sp, #15
1000162e:	680f      	ldr	r7, [r1, #0]
10001630:	f10d 010e 	add.w	r1, sp, #14
10001634:	47b8      	blx	r7
10001636:	f8d4 010c 	ldr.w	r0, [r4, #268]	@ 0x10c
1000163a:	2101      	movs	r1, #1
1000163c:	6803      	ldr	r3, [r0, #0]
1000163e:	b22d      	sxth	r5, r5
10001640:	691b      	ldr	r3, [r3, #16]
10001642:	4798      	blx	r3
10001644:	2d00      	cmp	r5, #0
10001646:	dd32      	ble.n	100016ae <st7735s_drv::fillArea(unsigned short, unsigned short, unsigned short, unsigned short, unsigned long)+0x14a>
10001648:	f1b6 7f80 	cmp.w	r6, #16777216	@ 0x1000000
1000164c:	f04f 0700 	mov.w	r7, #0
10001650:	d038      	beq.n	100016c4 <st7735s_drv::fillArea(unsigned short, unsigned short, unsigned short, unsigned short, unsigned long)+0x160>
10001652:	463a      	mov	r2, r7
10001654:	9807      	ldr	r0, [sp, #28]
10001656:	1d26      	adds	r6, r4, #4
10001658:	f000 4c7f 	and.w	ip, r0, #4278190080	@ 0xff000000
1000165c:	f1bc 7f80 	cmp.w	ip, #16777216	@ 0x1000000
10001660:	d061      	beq.n	10001726 <st7735s_drv::fillArea(unsigned short, unsigned short, unsigned short, unsigned short, unsigned long)+0x1c2>
10001662:	0a03      	lsrs	r3, r0, #8
10001664:	f403 4378 	and.w	r3, r3, #63488	@ 0xf800
10001668:	f3c0 0ec4 	ubfx	lr, r0, #3, #5
1000166c:	0941      	lsrs	r1, r0, #5
1000166e:	ea43 030e 	orr.w	r3, r3, lr
10001672:	f401 61fc 	and.w	r1, r1, #2016	@ 0x7e0
10001676:	430b      	orrs	r3, r1
10001678:	f1bc 0f00 	cmp.w	ip, #0
1000167c:	d157      	bne.n	1000172e <st7735s_drv::fillArea(unsigned short, unsigned short, unsigned short, unsigned short, unsigned long)+0x1ca>
1000167e:	ea4f 2e13 	mov.w	lr, r3, lsr #8
10001682:	b2db      	uxtb	r3, r3
10001684:	4611      	mov	r1, r2
10001686:	eb04 0c02 	add.w	ip, r4, r2
1000168a:	3202      	adds	r2, #2
1000168c:	4421      	add	r1, r4
1000168e:	f5b2 7f80 	cmp.w	r2, #256	@ 0x100
10001692:	f88c e004 	strb.w	lr, [ip, #4]
10001696:	714b      	strb	r3, [r1, #5]
10001698:	d035      	beq.n	10001706 <st7735s_drv::fillArea(unsigned short, unsigned short, unsigned short, unsigned short, unsigned long)+0x1a2>
1000169a:	3701      	adds	r7, #1
1000169c:	42bd      	cmp	r5, r7
1000169e:	d1db      	bne.n	10001658 <st7735s_drv::fillArea(unsigned short, unsigned short, unsigned short, unsigned short, unsigned long)+0xf4>
100016a0:	f8d4 0104 	ldr.w	r0, [r4, #260]	@ 0x104
100016a4:	4631      	mov	r1, r6
100016a6:	6803      	ldr	r3, [r0, #0]
100016a8:	b292      	uxth	r2, r2
100016aa:	685b      	ldr	r3, [r3, #4]
100016ac:	4798      	blx	r3
100016ae:	f8d4 0118 	ldr.w	r0, [r4, #280]	@ 0x118
100016b2:	b110      	cbz	r0, 100016ba <st7735s_drv::fillArea(unsigned short, unsigned short, unsigned short, unsigned short, unsigned long)+0x156>
100016b4:	6803      	ldr	r3, [r0, #0]
100016b6:	685b      	ldr	r3, [r3, #4]
100016b8:	4798      	blx	r3
100016ba:	b009      	add	sp, #36	@ 0x24
100016bc:	e8bd 83f0 	ldmia.w	sp!, {r4, r5, r6, r7, r8, r9, pc}
100016c0:	2500      	movs	r5, #0
100016c2:	e76a      	b.n	1000159a <st7735s_drv::fillArea(unsigned short, unsigned short, unsigned short, unsigned short, unsigned long)+0x36>
100016c4:	463a      	mov	r2, r7
100016c6:	1d26      	adds	r6, r4, #4
100016c8:	4613      	mov	r3, r2
100016ca:	9907      	ldr	r1, [sp, #28]
100016cc:	18a0      	adds	r0, r4, r2
100016ce:	3202      	adds	r2, #2
100016d0:	ea4f 2c11 	mov.w	ip, r1, lsr #8
100016d4:	4423      	add	r3, r4
100016d6:	f5b2 7f80 	cmp.w	r2, #256	@ 0x100
100016da:	f880 c004 	strb.w	ip, [r0, #4]
100016de:	7159      	strb	r1, [r3, #5]
100016e0:	d10d      	bne.n	100016fe <st7735s_drv::fillArea(unsigned short, unsigned short, unsigned short, unsigned short, unsigned long)+0x19a>
100016e2:	f8d4 0104 	ldr.w	r0, [r4, #260]	@ 0x104
100016e6:	4631      	mov	r1, r6
100016e8:	6803      	ldr	r3, [r0, #0]
100016ea:	3701      	adds	r7, #1
100016ec:	685b      	ldr	r3, [r3, #4]
100016ee:	4798      	blx	r3
100016f0:	42af      	cmp	r7, r5
100016f2:	d0dc      	beq.n	100016ae <st7735s_drv::fillArea(unsigned short, unsigned short, unsigned short, unsigned short, unsigned long)+0x14a>
100016f4:	2202      	movs	r2, #2
100016f6:	f8bd 301c 	ldrh.w	r3, [sp, #28]
100016fa:	ba5b      	rev16	r3, r3
100016fc:	80a3      	strh	r3, [r4, #4]
100016fe:	3701      	adds	r7, #1
10001700:	42bd      	cmp	r5, r7
10001702:	d1e1      	bne.n	100016c8 <st7735s_drv::fillArea(unsigned short, unsigned short, unsigned short, unsigned short, unsigned long)+0x164>
10001704:	e7cc      	b.n	100016a0 <st7735s_drv::fillArea(unsigned short, unsigned short, unsigned short, unsigned short, unsigned long)+0x13c>
10001706:	f8d4 0104 	ldr.w	r0, [r4, #260]	@ 0x104
1000170a:	4631      	mov	r1, r6
1000170c:	6803      	ldr	r3, [r0, #0]
1000170e:	3701      	adds	r7, #1
10001710:	685b      	ldr	r3, [r3, #4]
10001712:	4798      	blx	r3
10001714:	42bd      	cmp	r5, r7
10001716:	d0ca      	beq.n	100016ae <st7735s_drv::fillArea(unsigned short, unsigned short, unsigned short, unsigned short, unsigned long)+0x14a>
10001718:	9807      	ldr	r0, [sp, #28]
1000171a:	2200      	movs	r2, #0
1000171c:	f000 4c7f 	and.w	ip, r0, #4278190080	@ 0xff000000
10001720:	f1bc 7f80 	cmp.w	ip, #16777216	@ 0x1000000
10001724:	d19d      	bne.n	10001662 <st7735s_drv::fillArea(unsigned short, unsigned short, unsigned short, unsigned short, unsigned long)+0xfe>
10001726:	f3c0 2e07 	ubfx	lr, r0, #8, #8
1000172a:	b2c3      	uxtb	r3, r0
1000172c:	e7aa      	b.n	10001684 <st7735s_drv::fillArea(unsigned short, unsigned short, unsigned short, unsigned short, unsigned long)+0x120>
1000172e:	2300      	movs	r3, #0
10001730:	469e      	mov	lr, r3
10001732:	e7a7      	b.n	10001684 <st7735s_drv::fillArea(unsigned short, unsigned short, unsigned short, unsigned short, unsigned long)+0x120>
10001734:	4620      	mov	r0, r4
10001736:	ac06      	add	r4, sp, #24
10001738:	9700      	str	r7, [sp, #0]
1000173a:	9401      	str	r4, [sp, #4]
1000173c:	47b0      	blx	r6
1000173e:	b009      	add	sp, #36	@ 0x24
10001740:	e8bd 83f0 	ldmia.w	sp!, {r4, r5, r6, r7, r8, r9, pc}
10001744:	100046d8 	.word	0x100046d8
10001748:	100013d1 	.word	0x100013d1

1000174c <_GLOBAL__sub_I__ZN11st7735s_drv20Crystalfontz_128x128E>:
1000174c:	b410      	push	{r4}
1000174e:	f04f 1084 	mov.w	r0, #8650884	@ 0x840084
10001752:	f04f 1480 	mov.w	r4, #8388736	@ 0x800080
10001756:	f44f 7181 	mov.w	r1, #258	@ 0x102
1000175a:	2201      	movs	r2, #1
1000175c:	4b03      	ldr	r3, [pc, #12]	@ (1000176c <_GLOBAL__sub_I__ZN11st7735s_drv20Crystalfontz_128x128E+0x20>)
1000175e:	e9c3 4000 	strd	r4, r0, [r3]
10001762:	8119      	strh	r1, [r3, #8]
10001764:	729a      	strb	r2, [r3, #10]
10001766:	f85d 4b04 	ldr.w	r4, [sp], #4
1000176a:	4770      	bx	lr
1000176c:	200004b4 	.word	0x200004b4

10001770 <gpio_rp2350::setGpio(unsigned short)>:
10001770:	291f      	cmp	r1, #31
10001772:	f04f 0301 	mov.w	r3, #1
10001776:	bf94      	ite	ls
10001778:	2200      	movls	r2, #0
1000177a:	2201      	movhi	r2, #1
1000177c:	f001 0c1f 	and.w	ip, r1, #31
10001780:	fa03 f30c 	lsl.w	r3, r3, ip
10001784:	8081      	strh	r1, [r0, #4]
10001786:	60c3      	str	r3, [r0, #12]
10001788:	7202      	strb	r2, [r0, #8]
1000178a:	4770      	bx	lr

1000178c <gpio_rp2350::getGpio() const>:
1000178c:	8880      	ldrh	r0, [r0, #4]
1000178e:	4770      	bx	lr

10001790 <gpio_rp2350::gpioRead() const>:
10001790:	7a03      	ldrb	r3, [r0, #8]
10001792:	68c2      	ldr	r2, [r0, #12]
10001794:	009b      	lsls	r3, r3, #2
10001796:	f103 4350 	add.w	r3, r3, #3489660928	@ 0xd0000000
1000179a:	6858      	ldr	r0, [r3, #4]
1000179c:	4010      	ands	r0, r2
1000179e:	3800      	subs	r0, #0
100017a0:	bf18      	it	ne
100017a2:	2001      	movne	r0, #1
100017a4:	4770      	bx	lr
100017a6:	bf00      	nop

100017a8 <gpio_rp2350::gpioEnableIrq()>:
100017a8:	f04f 4350 	mov.w	r3, #3489660928	@ 0xd0000000
100017ac:	e92d 43f0 	stmdb	sp!, {r4, r5, r6, r7, r8, r9, lr}
100017b0:	f44f 1400 	mov.w	r4, #2097152	@ 0x200000
100017b4:	681a      	ldr	r2, [r3, #0]
100017b6:	681b      	ldr	r3, [r3, #0]
100017b8:	f8b0 c004 	ldrh.w	ip, [r0, #4]
100017bc:	4917      	ldr	r1, [pc, #92]	@ (1000181c <gpio_rp2350::gpioEnableIrq()+0x74>)
100017be:	eb02 02c2 	add.w	r2, r2, r2, lsl #3
100017c2:	eb03 03c3 	add.w	r3, r3, r3, lsl #3
100017c6:	f00c 0e07 	and.w	lr, ip, #7
100017ca:	0052      	lsls	r2, r2, #1
100017cc:	005b      	lsls	r3, r3, #1
100017ce:	4e14      	ldr	r6, [pc, #80]	@ (10001820 <gpio_rp2350::gpioEnableIrq()+0x78>)
100017d0:	4f14      	ldr	r7, [pc, #80]	@ (10001824 <gpio_rp2350::gpioEnableIrq()+0x7c>)
100017d2:	4d15      	ldr	r5, [pc, #84]	@ (10001828 <gpio_rp2350::gpioEnableIrq()+0x80>)
100017d4:	f8c1 4080 	str.w	r4, [r1, #128]	@ 0x80
100017d8:	eb02 02dc 	add.w	r2, r2, ip, lsr #3
100017dc:	eb03 03dc 	add.w	r3, r3, ip, lsr #3
100017e0:	ea4f 08dc 	mov.w	r8, ip, lsr #3
100017e4:	ea4f 0e8e 	mov.w	lr, lr, lsl #2
100017e8:	f3bf 8f4f 	dsb	sy
100017ec:	f3bf 8f6f 	isb	sy
100017f0:	f04f 0c0f 	mov.w	ip, #15
100017f4:	fa0c fc0e 	lsl.w	ip, ip, lr
100017f8:	f847 c023 	str.w	ip, [r7, r3, lsl #2]
100017fc:	8883      	ldrh	r3, [r0, #4]
100017fe:	f8df 902c 	ldr.w	r9, [pc, #44]	@ 1000182c <gpio_rp2350::gpioEnableIrq()+0x84>
10001802:	f819 3003 	ldrb.w	r3, [r9, r3]
10001806:	fa03 f30e 	lsl.w	r3, r3, lr
1000180a:	f846 3022 	str.w	r3, [r6, r2, lsl #2]
1000180e:	f845 c028 	str.w	ip, [r5, r8, lsl #2]
10001812:	f8c1 4180 	str.w	r4, [r1, #384]	@ 0x180
10001816:	600c      	str	r4, [r1, #0]
10001818:	e8bd 83f0 	ldmia.w	sp!, {r4, r5, r6, r7, r8, r9, pc}
1000181c:	e000e100 	.word	0xe000e100
10001820:	4002a248 	.word	0x4002a248
10001824:	4002b248 	.word	0x4002b248
10001828:	40028230 	.word	0x40028230
1000182c:	20000480 	.word	0x20000480

10001830 <gpio_rp2350::gpioDisableIrq()>:
10001830:	f04f 4350 	mov.w	r3, #3489660928	@ 0xd0000000
10001834:	220f      	movs	r2, #15
10001836:	b430      	push	{r4, r5}
10001838:	8881      	ldrh	r1, [r0, #4]
1000183a:	681b      	ldr	r3, [r3, #0]
1000183c:	f001 0007 	and.w	r0, r1, #7
10001840:	eb03 03c3 	add.w	r3, r3, r3, lsl #3
10001844:	4c06      	ldr	r4, [pc, #24]	@ (10001860 <gpio_rp2350::gpioDisableIrq()+0x30>)
10001846:	4d07      	ldr	r5, [pc, #28]	@ (10001864 <gpio_rp2350::gpioDisableIrq()+0x34>)
10001848:	0080      	lsls	r0, r0, #2
1000184a:	005b      	lsls	r3, r3, #1
1000184c:	4082      	lsls	r2, r0
1000184e:	eb03 03d1 	add.w	r3, r3, r1, lsr #3
10001852:	08c8      	lsrs	r0, r1, #3
10001854:	f845 2020 	str.w	r2, [r5, r0, lsl #2]
10001858:	f844 2023 	str.w	r2, [r4, r3, lsl #2]
1000185c:	bc30      	pop	{r4, r5}
1000185e:	4770      	bx	lr
10001860:	4002b248 	.word	0x4002b248
10001864:	40028230 	.word	0x40028230

10001868 <gpio_rp2350::~gpio_rp2350()>:
10001868:	4770      	bx	lr
1000186a:	bf00      	nop

1000186c <__tcf_0>:
1000186c:	b538      	push	{r3, r4, r5, lr}
1000186e:	4c0b      	ldr	r4, [pc, #44]	@ (1000189c <__tcf_0+0x30>)
10001870:	68a3      	ldr	r3, [r4, #8]
10001872:	f5a4 753c 	sub.w	r5, r4, #752	@ 0x2f0
10001876:	b15b      	cbz	r3, 10001890 <__tcf_0+0x24>
10001878:	2203      	movs	r2, #3
1000187a:	4621      	mov	r1, r4
1000187c:	4620      	mov	r0, r4
1000187e:	4798      	blx	r3
10001880:	42ac      	cmp	r4, r5
10001882:	f1a4 0310 	sub.w	r3, r4, #16
10001886:	d007      	beq.n	10001898 <__tcf_0+0x2c>
10001888:	461c      	mov	r4, r3
1000188a:	68a3      	ldr	r3, [r4, #8]
1000188c:	2b00      	cmp	r3, #0
1000188e:	d1f3      	bne.n	10001878 <__tcf_0+0xc>
10001890:	42ac      	cmp	r4, r5
10001892:	f1a4 0310 	sub.w	r3, r4, #16
10001896:	d1f7      	bne.n	10001888 <__tcf_0+0x1c>
10001898:	bd38      	pop	{r3, r4, r5, pc}
1000189a:	bf00      	nop
1000189c:	20000350 	.word	0x20000350

100018a0 <gpio_rp2350::~gpio_rp2350()>:
100018a0:	b510      	push	{r4, lr}
100018a2:	4604      	mov	r4, r0
100018a4:	2110      	movs	r1, #16
100018a6:	f002 fa88 	bl	10003dba <operator delete(void*, unsigned int)>
100018aa:	4620      	mov	r0, r4
100018ac:	bd10      	pop	{r4, pc}
100018ae:	bf00      	nop

100018b0 <gpio_rp2350::gpioToggle()>:
100018b0:	79c3      	ldrb	r3, [r0, #7]
100018b2:	b90b      	cbnz	r3, 100018b8 <gpio_rp2350::gpioToggle()+0x8>
100018b4:	7983      	ldrb	r3, [r0, #6]
100018b6:	b133      	cbz	r3, 100018c6 <gpio_rp2350::gpioToggle()+0x16>
100018b8:	7a03      	ldrb	r3, [r0, #8]
100018ba:	68c2      	ldr	r2, [r0, #12]
100018bc:	009b      	lsls	r3, r3, #2
100018be:	f103 4350 	add.w	r3, r3, #3489660928	@ 0xd0000000
100018c2:	649a      	str	r2, [r3, #72]	@ 0x48
100018c4:	4770      	bx	lr
100018c6:	7a03      	ldrb	r3, [r0, #8]
100018c8:	68c2      	ldr	r2, [r0, #12]
100018ca:	009b      	lsls	r3, r3, #2
100018cc:	f103 4350 	add.w	r3, r3, #3489660928	@ 0xd0000000
100018d0:	629a      	str	r2, [r3, #40]	@ 0x28
100018d2:	4770      	bx	lr

100018d4 <gpio_rp2350::gpioWrite(bool)>:
100018d4:	79c3      	ldrb	r3, [r0, #7]
100018d6:	b13b      	cbz	r3, 100018e8 <gpio_rp2350::gpioWrite(bool)+0x14>
100018d8:	7a03      	ldrb	r3, [r0, #8]
100018da:	68c2      	ldr	r2, [r0, #12]
100018dc:	009b      	lsls	r3, r3, #2
100018de:	f103 4350 	add.w	r3, r3, #3489660928	@ 0xd0000000
100018e2:	b151      	cbz	r1, 100018fa <gpio_rp2350::gpioWrite(bool)+0x26>
100018e4:	641a      	str	r2, [r3, #64]	@ 0x40
100018e6:	4770      	bx	lr
100018e8:	7983      	ldrb	r3, [r0, #6]
100018ea:	b143      	cbz	r3, 100018fe <gpio_rp2350::gpioWrite(bool)+0x2a>
100018ec:	7a03      	ldrb	r3, [r0, #8]
100018ee:	68c2      	ldr	r2, [r0, #12]
100018f0:	009b      	lsls	r3, r3, #2
100018f2:	f103 4350 	add.w	r3, r3, #3489660928	@ 0xd0000000
100018f6:	2900      	cmp	r1, #0
100018f8:	d0f4      	beq.n	100018e4 <gpio_rp2350::gpioWrite(bool)+0x10>
100018fa:	639a      	str	r2, [r3, #56]	@ 0x38
100018fc:	4770      	bx	lr
100018fe:	7a03      	ldrb	r3, [r0, #8]
10001900:	68c2      	ldr	r2, [r0, #12]
10001902:	009b      	lsls	r3, r3, #2
10001904:	f103 4350 	add.w	r3, r3, #3489660928	@ 0xd0000000
10001908:	b109      	cbz	r1, 1000190e <gpio_rp2350::gpioWrite(bool)+0x3a>
1000190a:	619a      	str	r2, [r3, #24]
1000190c:	4770      	bx	lr
1000190e:	621a      	str	r2, [r3, #32]
10001910:	4770      	bx	lr
10001912:	bf00      	nop

10001914 <gpio_rp2350::gpioDetachIrq()>:
10001914:	b538      	push	{r3, r4, r5, lr}
10001916:	6803      	ldr	r3, [r0, #0]
10001918:	4a17      	ldr	r2, [pc, #92]	@ (10001978 <gpio_rp2350::gpioDetachIrq()+0x64>)
1000191a:	6a5b      	ldr	r3, [r3, #36]	@ 0x24
1000191c:	4604      	mov	r4, r0
1000191e:	4293      	cmp	r3, r2
10001920:	d127      	bne.n	10001972 <gpio_rp2350::gpioDetachIrq()+0x5e>
10001922:	f04f 4e50 	mov.w	lr, #3489660928	@ 0xd0000000
10001926:	220f      	movs	r2, #15
10001928:	8881      	ldrh	r1, [r0, #4]
1000192a:	4d14      	ldr	r5, [pc, #80]	@ (1000197c <gpio_rp2350::gpioDetachIrq()+0x68>)
1000192c:	f001 0307 	and.w	r3, r1, #7
10001930:	009b      	lsls	r3, r3, #2
10001932:	409a      	lsls	r2, r3
10001934:	f8de 3000 	ldr.w	r3, [lr]
10001938:	4811      	ldr	r0, [pc, #68]	@ (10001980 <gpio_rp2350::gpioDetachIrq()+0x6c>)
1000193a:	eb03 03c3 	add.w	r3, r3, r3, lsl #3
1000193e:	005b      	lsls	r3, r3, #1
10001940:	ea4f 0cd1 	mov.w	ip, r1, lsr #3
10001944:	eb03 03d1 	add.w	r3, r3, r1, lsr #3
10001948:	f845 202c 	str.w	r2, [r5, ip, lsl #2]
1000194c:	f840 2023 	str.w	r2, [r0, r3, lsl #2]
10001950:	88a1      	ldrh	r1, [r4, #4]
10001952:	4d0c      	ldr	r5, [pc, #48]	@ (10001984 <gpio_rp2350::gpioDetachIrq()+0x70>)
10001954:	010c      	lsls	r4, r1, #4
10001956:	eb05 1101 	add.w	r1, r5, r1, lsl #4
1000195a:	688b      	ldr	r3, [r1, #8]
1000195c:	b143      	cbz	r3, 10001970 <gpio_rp2350::gpioDetachIrq()+0x5c>
1000195e:	2203      	movs	r2, #3
10001960:	4608      	mov	r0, r1
10001962:	4798      	blx	r3
10001964:	2200      	movs	r2, #0
10001966:	2300      	movs	r3, #0
10001968:	3408      	adds	r4, #8
1000196a:	442c      	add	r4, r5
1000196c:	e9c4 2300 	strd	r2, r3, [r4]
10001970:	bd38      	pop	{r3, r4, r5, pc}
10001972:	4798      	blx	r3
10001974:	e7ec      	b.n	10001950 <gpio_rp2350::gpioDetachIrq()+0x3c>
10001976:	bf00      	nop
10001978:	10001831 	.word	0x10001831
1000197c:	40028230 	.word	0x40028230
10001980:	4002b248 	.word	0x4002b248
10001984:	20000060 	.word	0x20000060

10001988 <gpio_rp2350::gpioAttachIrq(unsigned short, std::function<void ()>)>:
10001988:	e92d 43f0 	stmdb	sp!, {r4, r5, r6, r7, r8, r9, lr}
1000198c:	2400      	movs	r4, #0
1000198e:	4690      	mov	r8, r2
10001990:	4f49      	ldr	r7, [pc, #292]	@ (10001ab8 <gpio_rp2350::gpioAttachIrq(unsigned short, std::function<void ()>)+0x130>)
10001992:	8882      	ldrh	r2, [r0, #4]
10001994:	4605      	mov	r5, r0
10001996:	0708      	lsls	r0, r1, #28
10001998:	b087      	sub	sp, #28
1000199a:	460b      	mov	r3, r1
1000199c:	54bc      	strb	r4, [r7, r2]
1000199e:	d504      	bpl.n	100019aa <gpio_rp2350::gpioAttachIrq(unsigned short, std::function<void ()>)+0x22>
100019a0:	88a9      	ldrh	r1, [r5, #4]
100019a2:	5c7a      	ldrb	r2, [r7, r1]
100019a4:	f042 0201 	orr.w	r2, r2, #1
100019a8:	547a      	strb	r2, [r7, r1]
100019aa:	0759      	lsls	r1, r3, #29
100019ac:	d504      	bpl.n	100019b8 <gpio_rp2350::gpioAttachIrq(unsigned short, std::function<void ()>)+0x30>
100019ae:	88a9      	ldrh	r1, [r5, #4]
100019b0:	5c7a      	ldrb	r2, [r7, r1]
100019b2:	f042 0202 	orr.w	r2, r2, #2
100019b6:	547a      	strb	r2, [r7, r1]
100019b8:	079a      	lsls	r2, r3, #30
100019ba:	d504      	bpl.n	100019c6 <gpio_rp2350::gpioAttachIrq(unsigned short, std::function<void ()>)+0x3e>
100019bc:	88a9      	ldrh	r1, [r5, #4]
100019be:	5c7a      	ldrb	r2, [r7, r1]
100019c0:	f042 0204 	orr.w	r2, r2, #4
100019c4:	547a      	strb	r2, [r7, r1]
100019c6:	07db      	lsls	r3, r3, #31
100019c8:	d504      	bpl.n	100019d4 <gpio_rp2350::gpioAttachIrq(unsigned short, std::function<void ()>)+0x4c>
100019ca:	88aa      	ldrh	r2, [r5, #4]
100019cc:	5cbb      	ldrb	r3, [r7, r2]
100019ce:	f043 0308 	orr.w	r3, r3, #8
100019d2:	54bb      	strb	r3, [r7, r2]
100019d4:	2200      	movs	r2, #0
100019d6:	88ab      	ldrh	r3, [r5, #4]
100019d8:	4c38      	ldr	r4, [pc, #224]	@ (10001abc <gpio_rp2350::gpioAttachIrq(unsigned short, std::function<void ()>)+0x134>)
100019da:	ae02      	add	r6, sp, #8
100019dc:	eb04 1403 	add.w	r4, r4, r3, lsl #4
100019e0:	f8d8 3008 	ldr.w	r3, [r8, #8]
100019e4:	9202      	str	r2, [sp, #8]
100019e6:	9205      	str	r2, [sp, #20]
100019e8:	e9c6 2201 	strd	r2, r2, [r6, #4]
100019ec:	2b00      	cmp	r3, #0
100019ee:	d05b      	beq.n	10001aa8 <gpio_rp2350::gpioAttachIrq(unsigned short, std::function<void ()>)+0x120>
100019f0:	4641      	mov	r1, r8
100019f2:	2202      	movs	r2, #2
100019f4:	4630      	mov	r0, r6
100019f6:	4798      	blx	r3
100019f8:	e9d8 3102 	ldrd	r3, r1, [r8, #8]
100019fc:	f8d4 8008 	ldr.w	r8, [r4, #8]
10001a00:	60a3      	str	r3, [r4, #8]
10001a02:	f8cd 8010 	str.w	r8, [sp, #16]
10001a06:	68e3      	ldr	r3, [r4, #12]
10001a08:	60e1      	str	r1, [r4, #12]
10001a0a:	e896 0003 	ldmia.w	r6, {r0, r1}
10001a0e:	e9cd 0100 	strd	r0, r1, [sp]
10001a12:	e894 0003 	ldmia.w	r4, {r0, r1}
10001a16:	9305      	str	r3, [sp, #20]
10001a18:	e886 0003 	stmia.w	r6, {r0, r1}
10001a1c:	e9dd 0100 	ldrd	r0, r1, [sp]
10001a20:	e884 0003 	stmia.w	r4, {r0, r1}
10001a24:	f1b8 0f00 	cmp.w	r8, #0
10001a28:	d003      	beq.n	10001a32 <gpio_rp2350::gpioAttachIrq(unsigned short, std::function<void ()>)+0xaa>
10001a2a:	2203      	movs	r2, #3
10001a2c:	4631      	mov	r1, r6
10001a2e:	4630      	mov	r0, r6
10001a30:	47c0      	blx	r8
10001a32:	682b      	ldr	r3, [r5, #0]
10001a34:	4a22      	ldr	r2, [pc, #136]	@ (10001ac0 <gpio_rp2350::gpioAttachIrq(unsigned short, std::function<void ()>)+0x138>)
10001a36:	6a1b      	ldr	r3, [r3, #32]
10001a38:	4293      	cmp	r3, r2
10001a3a:	d137      	bne.n	10001aac <gpio_rp2350::gpioAttachIrq(unsigned short, std::function<void ()>)+0x124>
10001a3c:	f04f 4350 	mov.w	r3, #3489660928	@ 0xd0000000
10001a40:	f44f 1400 	mov.w	r4, #2097152	@ 0x200000
10001a44:	681a      	ldr	r2, [r3, #0]
10001a46:	681b      	ldr	r3, [r3, #0]
10001a48:	f8b5 9004 	ldrh.w	r9, [r5, #4]
10001a4c:	491d      	ldr	r1, [pc, #116]	@ (10001ac4 <gpio_rp2350::gpioAttachIrq(unsigned short, std::function<void ()>)+0x13c>)
10001a4e:	eb02 02c2 	add.w	r2, r2, r2, lsl #3
10001a52:	eb03 03c3 	add.w	r3, r3, r3, lsl #3
10001a56:	f009 0007 	and.w	r0, r9, #7
10001a5a:	0052      	lsls	r2, r2, #1
10001a5c:	005b      	lsls	r3, r3, #1
10001a5e:	f8df e06c 	ldr.w	lr, [pc, #108]	@ 10001acc <gpio_rp2350::gpioAttachIrq(unsigned short, std::function<void ()>)+0x144>
10001a62:	f8df 806c 	ldr.w	r8, [pc, #108]	@ 10001ad0 <gpio_rp2350::gpioAttachIrq(unsigned short, std::function<void ()>)+0x148>
10001a66:	4e18      	ldr	r6, [pc, #96]	@ (10001ac8 <gpio_rp2350::gpioAttachIrq(unsigned short, std::function<void ()>)+0x140>)
10001a68:	ea4f 0cd9 	mov.w	ip, r9, lsr #3
10001a6c:	0080      	lsls	r0, r0, #2
10001a6e:	eb02 02d9 	add.w	r2, r2, r9, lsr #3
10001a72:	eb03 03d9 	add.w	r3, r3, r9, lsr #3
10001a76:	f8c1 4080 	str.w	r4, [r1, #128]	@ 0x80
10001a7a:	f3bf 8f4f 	dsb	sy
10001a7e:	f3bf 8f6f 	isb	sy
10001a82:	f04f 090f 	mov.w	r9, #15
10001a86:	fa09 f900 	lsl.w	r9, r9, r0
10001a8a:	f848 9023 	str.w	r9, [r8, r3, lsl #2]
10001a8e:	88ab      	ldrh	r3, [r5, #4]
10001a90:	5cfb      	ldrb	r3, [r7, r3]
10001a92:	4083      	lsls	r3, r0
10001a94:	f84e 3022 	str.w	r3, [lr, r2, lsl #2]
10001a98:	f846 902c 	str.w	r9, [r6, ip, lsl #2]
10001a9c:	f8c1 4180 	str.w	r4, [r1, #384]	@ 0x180
10001aa0:	600c      	str	r4, [r1, #0]
10001aa2:	b007      	add	sp, #28
10001aa4:	e8bd 83f0 	ldmia.w	sp!, {r4, r5, r6, r7, r8, r9, pc}
10001aa8:	4619      	mov	r1, r3
10001aaa:	e7a7      	b.n	100019fc <gpio_rp2350::gpioAttachIrq(unsigned short, std::function<void ()>)+0x74>
10001aac:	4628      	mov	r0, r5
10001aae:	b007      	add	sp, #28
10001ab0:	e8bd 43f0 	ldmia.w	sp!, {r4, r5, r6, r7, r8, r9, lr}
10001ab4:	4718      	bx	r3
10001ab6:	bf00      	nop
10001ab8:	20000480 	.word	0x20000480
10001abc:	20000060 	.word	0x20000060
10001ac0:	100017a9 	.word	0x100017a9
10001ac4:	e000e100 	.word	0xe000e100
10001ac8:	40028230 	.word	0x40028230
10001acc:	4002a248 	.word	0x4002a248
10001ad0:	4002b248 	.word	0x4002b248

10001ad4 <gpio_rp2350::gpio_rp2350(unsigned short)>:
10001ad4:	f04f 0c00 	mov.w	ip, #0
10001ad8:	291f      	cmp	r1, #31
10001ada:	f04f 0201 	mov.w	r2, #1
10001ade:	b410      	push	{r4}
10001ae0:	8081      	strh	r1, [r0, #4]
10001ae2:	f8a0 c006 	strh.w	ip, [r0, #6]
10001ae6:	f001 0c1f 	and.w	ip, r1, #31
10001aea:	bf94      	ite	ls
10001aec:	2100      	movls	r1, #0
10001aee:	2101      	movhi	r1, #1
10001af0:	4c04      	ldr	r4, [pc, #16]	@ (10001b04 <gpio_rp2350::gpio_rp2350(unsigned short)+0x30>)
10001af2:	fa02 f20c 	lsl.w	r2, r2, ip
10001af6:	6004      	str	r4, [r0, #0]
10001af8:	60c2      	str	r2, [r0, #12]
10001afa:	f85d 4b04 	ldr.w	r4, [sp], #4
10001afe:	7201      	strb	r1, [r0, #8]
10001b00:	4770      	bx	lr
10001b02:	bf00      	nop
10001b04:	10004720 	.word	0x10004720

10001b08 <gpio_rp2350::setSEL(unsigned char) const>:
10001b08:	b410      	push	{r4}
10001b0a:	8882      	ldrh	r2, [r0, #4]
10001b0c:	4b17      	ldr	r3, [pc, #92]	@ (10001b6c <gpio_rp2350::setSEL(unsigned char) const+0x64>)
10001b0e:	f853 4032 	ldr.w	r4, [r3, r2, lsl #3]
10001b12:	f361 0404 	bfi	r4, r1, #0, #5
10001b16:	f843 4032 	str.w	r4, [r3, r2, lsl #3]
10001b1a:	f853 1032 	ldr.w	r1, [r3, r2, lsl #3]
10001b1e:	f421 5140 	bic.w	r1, r1, #12288	@ 0x3000
10001b22:	f843 1032 	str.w	r1, [r3, r2, lsl #3]
10001b26:	f853 1032 	ldr.w	r1, [r3, r2, lsl #3]
10001b2a:	f421 4140 	bic.w	r1, r1, #49152	@ 0xc000
10001b2e:	f843 1032 	str.w	r1, [r3, r2, lsl #3]
10001b32:	f853 1032 	ldr.w	r1, [r3, r2, lsl #3]
10001b36:	f421 3140 	bic.w	r1, r1, #196608	@ 0x30000
10001b3a:	f843 1032 	str.w	r1, [r3, r2, lsl #3]
10001b3e:	f853 1032 	ldr.w	r1, [r3, r2, lsl #3]
10001b42:	f021 5140 	bic.w	r1, r1, #805306368	@ 0x30000000
10001b46:	f843 1032 	str.w	r1, [r3, r2, lsl #3]
10001b4a:	8883      	ldrh	r3, [r0, #4]
10001b4c:	009b      	lsls	r3, r3, #2
10001b4e:	f103 4380 	add.w	r3, r3, #1073741824	@ 0x40000000
10001b52:	f503 3360 	add.w	r3, r3, #229376	@ 0x38000
10001b56:	685a      	ldr	r2, [r3, #4]
10001b58:	f422 7280 	bic.w	r2, r2, #256	@ 0x100
10001b5c:	605a      	str	r2, [r3, #4]
10001b5e:	685a      	ldr	r2, [r3, #4]
10001b60:	f042 0240 	orr.w	r2, r2, #64	@ 0x40
10001b64:	605a      	str	r2, [r3, #4]
10001b66:	f85d 4b04 	ldr.w	r4, [sp], #4
10001b6a:	4770      	bx	lr
10001b6c:	40028004 	.word	0x40028004

10001b70 <gpio_rp2350::setMode(unsigned short)>:
10001b70:	f04f 0c00 	mov.w	ip, #0
10001b74:	b570      	push	{r4, r5, r6, lr}
10001b76:	7a03      	ldrb	r3, [r0, #8]
10001b78:	68c2      	ldr	r2, [r0, #12]
10001b7a:	009b      	lsls	r3, r3, #2
10001b7c:	f103 4350 	add.w	r3, r3, #3489660928	@ 0xd0000000
10001b80:	f8a0 c006 	strh.w	ip, [r0, #6]
10001b84:	621a      	str	r2, [r3, #32]
10001b86:	7a03      	ldrb	r3, [r0, #8]
10001b88:	4604      	mov	r4, r0
10001b8a:	009b      	lsls	r3, r3, #2
10001b8c:	f103 4350 	add.w	r3, r3, #3489660928	@ 0xd0000000
10001b90:	641a      	str	r2, [r3, #64]	@ 0x40
10001b92:	8883      	ldrh	r3, [r0, #4]
10001b94:	460d      	mov	r5, r1
10001b96:	009b      	lsls	r3, r3, #2
10001b98:	f103 4380 	add.w	r3, r3, #1073741824	@ 0x40000000
10001b9c:	f503 3360 	add.w	r3, r3, #229376	@ 0x38000
10001ba0:	685a      	ldr	r2, [r3, #4]
10001ba2:	f422 7280 	bic.w	r2, r2, #256	@ 0x100
10001ba6:	605a      	str	r2, [r3, #4]
10001ba8:	685a      	ldr	r2, [r3, #4]
10001baa:	f022 0280 	bic.w	r2, r2, #128	@ 0x80
10001bae:	605a      	str	r2, [r3, #4]
10001bb0:	685a      	ldr	r2, [r3, #4]
10001bb2:	f022 0240 	bic.w	r2, r2, #64	@ 0x40
10001bb6:	605a      	str	r2, [r3, #4]
10001bb8:	685a      	ldr	r2, [r3, #4]
10001bba:	f022 0230 	bic.w	r2, r2, #48	@ 0x30
10001bbe:	605a      	str	r2, [r3, #4]
10001bc0:	685a      	ldr	r2, [r3, #4]
10001bc2:	f022 0208 	bic.w	r2, r2, #8
10001bc6:	605a      	str	r2, [r3, #4]
10001bc8:	685a      	ldr	r2, [r3, #4]
10001bca:	f022 0204 	bic.w	r2, r2, #4
10001bce:	605a      	str	r2, [r3, #4]
10001bd0:	685a      	ldr	r2, [r3, #4]
10001bd2:	f042 0202 	orr.w	r2, r2, #2
10001bd6:	605a      	str	r2, [r3, #4]
10001bd8:	685a      	ldr	r2, [r3, #4]
10001bda:	f022 0201 	bic.w	r2, r2, #1
10001bde:	605a      	str	r2, [r3, #4]
10001be0:	07ca      	lsls	r2, r1, #31
10001be2:	d503      	bpl.n	10001bec <gpio_rp2350::setMode(unsigned short)+0x7c>
10001be4:	685a      	ldr	r2, [r3, #4]
10001be6:	f042 0240 	orr.w	r2, r2, #64	@ 0x40
10001bea:	605a      	str	r2, [r3, #4]
10001bec:	04ee      	lsls	r6, r5, #19
10001bee:	d50d      	bpl.n	10001c0c <gpio_rp2350::setMode(unsigned short)+0x9c>
10001bf0:	685a      	ldr	r2, [r3, #4]
10001bf2:	494b      	ldr	r1, [pc, #300]	@ (10001d20 <gpio_rp2350::setMode(unsigned short)+0x1b0>)
10001bf4:	f042 0240 	orr.w	r2, r2, #64	@ 0x40
10001bf8:	605a      	str	r2, [r3, #4]
10001bfa:	88a0      	ldrh	r0, [r4, #4]
10001bfc:	f851 2030 	ldr.w	r2, [r1, r0, lsl #3]
10001c00:	f422 3240 	bic.w	r2, r2, #196608	@ 0x30000
10001c04:	f442 3280 	orr.w	r2, r2, #65536	@ 0x10000
10001c08:	f841 2030 	str.w	r2, [r1, r0, lsl #3]
10001c0c:	07a8      	lsls	r0, r5, #30
10001c0e:	d505      	bpl.n	10001c1c <gpio_rp2350::setMode(unsigned short)+0xac>
10001c10:	7a22      	ldrb	r2, [r4, #8]
10001c12:	68e1      	ldr	r1, [r4, #12]
10001c14:	0092      	lsls	r2, r2, #2
10001c16:	f102 4250 	add.w	r2, r2, #3489660928	@ 0xd0000000
10001c1a:	6391      	str	r1, [r2, #56]	@ 0x38
10001c1c:	0769      	lsls	r1, r5, #29
10001c1e:	d50b      	bpl.n	10001c38 <gpio_rp2350::setMode(unsigned short)+0xc8>
10001c20:	79e1      	ldrb	r1, [r4, #7]
10001c22:	68e0      	ldr	r0, [r4, #12]
10001c24:	7a22      	ldrb	r2, [r4, #8]
10001c26:	4301      	orrs	r1, r0
10001c28:	3900      	subs	r1, #0
10001c2a:	bf18      	it	ne
10001c2c:	2101      	movne	r1, #1
10001c2e:	0092      	lsls	r2, r2, #2
10001c30:	f102 4250 	add.w	r2, r2, #3489660928	@ 0xd0000000
10001c34:	71e1      	strb	r1, [r4, #7]
10001c36:	6390      	str	r0, [r2, #56]	@ 0x38
10001c38:	072a      	lsls	r2, r5, #28
10001c3a:	d50b      	bpl.n	10001c54 <gpio_rp2350::setMode(unsigned short)+0xe4>
10001c3c:	79a1      	ldrb	r1, [r4, #6]
10001c3e:	68e0      	ldr	r0, [r4, #12]
10001c40:	7a22      	ldrb	r2, [r4, #8]
10001c42:	4301      	orrs	r1, r0
10001c44:	3900      	subs	r1, #0
10001c46:	bf18      	it	ne
10001c48:	2101      	movne	r1, #1
10001c4a:	0092      	lsls	r2, r2, #2
10001c4c:	f102 4250 	add.w	r2, r2, #3489660928	@ 0xd0000000
10001c50:	71a1      	strb	r1, [r4, #6]
10001c52:	6190      	str	r0, [r2, #24]
10001c54:	06ee      	lsls	r6, r5, #27
10001c56:	d503      	bpl.n	10001c60 <gpio_rp2350::setMode(unsigned short)+0xf0>
10001c58:	685a      	ldr	r2, [r3, #4]
10001c5a:	f042 0208 	orr.w	r2, r2, #8
10001c5e:	605a      	str	r2, [r3, #4]
10001c60:	06a8      	lsls	r0, r5, #26
10001c62:	d503      	bpl.n	10001c6c <gpio_rp2350::setMode(unsigned short)+0xfc>
10001c64:	685a      	ldr	r2, [r3, #4]
10001c66:	f042 0204 	orr.w	r2, r2, #4
10001c6a:	605a      	str	r2, [r3, #4]
10001c6c:	0629      	lsls	r1, r5, #24
10001c6e:	d503      	bpl.n	10001c78 <gpio_rp2350::setMode(unsigned short)+0x108>
10001c70:	685a      	ldr	r2, [r3, #4]
10001c72:	f042 0201 	orr.w	r2, r2, #1
10001c76:	605a      	str	r2, [r3, #4]
10001c78:	f415 6f40 	tst.w	r5, #3072	@ 0xc00
10001c7c:	d007      	beq.n	10001c8e <gpio_rp2350::setMode(unsigned short)+0x11e>
10001c7e:	685a      	ldr	r2, [r3, #4]
10001c80:	f3c5 2181 	ubfx	r1, r5, #10, #2
10001c84:	f022 0230 	bic.w	r2, r2, #48	@ 0x30
10001c88:	ea42 1201 	orr.w	r2, r2, r1, lsl #4
10001c8c:	605a      	str	r2, [r3, #4]
10001c8e:	05ea      	lsls	r2, r5, #23
10001c90:	d50c      	bpl.n	10001cac <gpio_rp2350::setMode(unsigned short)+0x13c>
10001c92:	6823      	ldr	r3, [r4, #0]
10001c94:	4a23      	ldr	r2, [pc, #140]	@ (10001d24 <gpio_rp2350::setMode(unsigned short)+0x1b4>)
10001c96:	691b      	ldr	r3, [r3, #16]
10001c98:	4293      	cmp	r3, r2
10001c9a:	d13c      	bne.n	10001d16 <gpio_rp2350::setMode(unsigned short)+0x1a6>
10001c9c:	79e3      	ldrb	r3, [r4, #7]
10001c9e:	b1ab      	cbz	r3, 10001ccc <gpio_rp2350::setMode(unsigned short)+0x15c>
10001ca0:	7a23      	ldrb	r3, [r4, #8]
10001ca2:	68e2      	ldr	r2, [r4, #12]
10001ca4:	009b      	lsls	r3, r3, #2
10001ca6:	f103 4350 	add.w	r3, r3, #3489660928	@ 0xd0000000
10001caa:	641a      	str	r2, [r3, #64]	@ 0x40
10001cac:	05ab      	lsls	r3, r5, #22
10001cae:	d50c      	bpl.n	10001cca <gpio_rp2350::setMode(unsigned short)+0x15a>
10001cb0:	6823      	ldr	r3, [r4, #0]
10001cb2:	4a1c      	ldr	r2, [pc, #112]	@ (10001d24 <gpio_rp2350::setMode(unsigned short)+0x1b4>)
10001cb4:	691b      	ldr	r3, [r3, #16]
10001cb6:	4293      	cmp	r3, r2
10001cb8:	d128      	bne.n	10001d0c <gpio_rp2350::setMode(unsigned short)+0x19c>
10001cba:	79e3      	ldrb	r3, [r4, #7]
10001cbc:	b17b      	cbz	r3, 10001cde <gpio_rp2350::setMode(unsigned short)+0x16e>
10001cbe:	7a23      	ldrb	r3, [r4, #8]
10001cc0:	68e2      	ldr	r2, [r4, #12]
10001cc2:	009b      	lsls	r3, r3, #2
10001cc4:	f103 4350 	add.w	r3, r3, #3489660928	@ 0xd0000000
10001cc8:	639a      	str	r2, [r3, #56]	@ 0x38
10001cca:	bd70      	pop	{r4, r5, r6, pc}
10001ccc:	79a3      	ldrb	r3, [r4, #6]
10001cce:	b1b3      	cbz	r3, 10001cfe <gpio_rp2350::setMode(unsigned short)+0x18e>
10001cd0:	7a23      	ldrb	r3, [r4, #8]
10001cd2:	68e2      	ldr	r2, [r4, #12]
10001cd4:	009b      	lsls	r3, r3, #2
10001cd6:	f103 4350 	add.w	r3, r3, #3489660928	@ 0xd0000000
10001cda:	639a      	str	r2, [r3, #56]	@ 0x38
10001cdc:	e7e6      	b.n	10001cac <gpio_rp2350::setMode(unsigned short)+0x13c>
10001cde:	79a3      	ldrb	r3, [r4, #6]
10001ce0:	b133      	cbz	r3, 10001cf0 <gpio_rp2350::setMode(unsigned short)+0x180>
10001ce2:	7a23      	ldrb	r3, [r4, #8]
10001ce4:	68e2      	ldr	r2, [r4, #12]
10001ce6:	009b      	lsls	r3, r3, #2
10001ce8:	f103 4350 	add.w	r3, r3, #3489660928	@ 0xd0000000
10001cec:	641a      	str	r2, [r3, #64]	@ 0x40
10001cee:	bd70      	pop	{r4, r5, r6, pc}
10001cf0:	7a23      	ldrb	r3, [r4, #8]
10001cf2:	68e2      	ldr	r2, [r4, #12]
10001cf4:	009b      	lsls	r3, r3, #2
10001cf6:	f103 4350 	add.w	r3, r3, #3489660928	@ 0xd0000000
10001cfa:	621a      	str	r2, [r3, #32]
10001cfc:	bd70      	pop	{r4, r5, r6, pc}
10001cfe:	7a23      	ldrb	r3, [r4, #8]
10001d00:	68e2      	ldr	r2, [r4, #12]
10001d02:	009b      	lsls	r3, r3, #2
10001d04:	f103 4350 	add.w	r3, r3, #3489660928	@ 0xd0000000
10001d08:	619a      	str	r2, [r3, #24]
10001d0a:	e7cf      	b.n	10001cac <gpio_rp2350::setMode(unsigned short)+0x13c>
10001d0c:	4620      	mov	r0, r4
10001d0e:	e8bd 4070 	ldmia.w	sp!, {r4, r5, r6, lr}
10001d12:	2100      	movs	r1, #0
10001d14:	4718      	bx	r3
10001d16:	2101      	movs	r1, #1
10001d18:	4620      	mov	r0, r4
10001d1a:	4798      	blx	r3
10001d1c:	e7c6      	b.n	10001cac <gpio_rp2350::setMode(unsigned short)+0x13c>
10001d1e:	bf00      	nop
10001d20:	40028004 	.word	0x40028004
10001d24:	100018d5 	.word	0x100018d5

10001d28 <gpio_rp2350::gpioMode(unsigned short)>:
10001d28:	b410      	push	{r4}
10001d2a:	8882      	ldrh	r2, [r0, #4]
10001d2c:	4b19      	ldr	r3, [pc, #100]	@ (10001d94 <gpio_rp2350::gpioMode(unsigned short)+0x6c>)
10001d2e:	f853 4032 	ldr.w	r4, [r3, r2, lsl #3]
10001d32:	f024 041f 	bic.w	r4, r4, #31
10001d36:	f044 0405 	orr.w	r4, r4, #5
10001d3a:	f843 4032 	str.w	r4, [r3, r2, lsl #3]
10001d3e:	f853 4032 	ldr.w	r4, [r3, r2, lsl #3]
10001d42:	f424 5440 	bic.w	r4, r4, #12288	@ 0x3000
10001d46:	f843 4032 	str.w	r4, [r3, r2, lsl #3]
10001d4a:	f853 4032 	ldr.w	r4, [r3, r2, lsl #3]
10001d4e:	f424 4440 	bic.w	r4, r4, #49152	@ 0xc000
10001d52:	f843 4032 	str.w	r4, [r3, r2, lsl #3]
10001d56:	f853 4032 	ldr.w	r4, [r3, r2, lsl #3]
10001d5a:	f424 3440 	bic.w	r4, r4, #196608	@ 0x30000
10001d5e:	f843 4032 	str.w	r4, [r3, r2, lsl #3]
10001d62:	f853 4032 	ldr.w	r4, [r3, r2, lsl #3]
10001d66:	f024 5440 	bic.w	r4, r4, #805306368	@ 0x30000000
10001d6a:	f843 4032 	str.w	r4, [r3, r2, lsl #3]
10001d6e:	8883      	ldrh	r3, [r0, #4]
10001d70:	009b      	lsls	r3, r3, #2
10001d72:	f103 4380 	add.w	r3, r3, #1073741824	@ 0x40000000
10001d76:	f503 3360 	add.w	r3, r3, #229376	@ 0x38000
10001d7a:	685a      	ldr	r2, [r3, #4]
10001d7c:	f422 7280 	bic.w	r2, r2, #256	@ 0x100
10001d80:	605a      	str	r2, [r3, #4]
10001d82:	685a      	ldr	r2, [r3, #4]
10001d84:	f042 0240 	orr.w	r2, r2, #64	@ 0x40
10001d88:	605a      	str	r2, [r3, #4]
10001d8a:	f85d 4b04 	ldr.w	r4, [sp], #4
10001d8e:	f7ff beef 	b.w	10001b70 <gpio_rp2350::setMode(unsigned short)>
10001d92:	bf00      	nop
10001d94:	40028004 	.word	0x40028004

10001d98 <IO_IRQ_BANK0_Handler>:
10001d98:	e92d 43f8 	stmdb	sp!, {r3, r4, r5, r6, r7, r8, r9, lr}
10001d9c:	f04f 4350 	mov.w	r3, #3489660928	@ 0xd0000000
10001da0:	2400      	movs	r4, #0
10001da2:	f04f 0901 	mov.w	r9, #1
10001da6:	681b      	ldr	r3, [r3, #0]
10001da8:	4d16      	ldr	r5, [pc, #88]	@ (10001e04 <IO_IRQ_BANK0_Handler+0x6c>)
10001daa:	eb03 03c3 	add.w	r3, r3, r3, lsl #3
10001dae:	00de      	lsls	r6, r3, #3
10001db0:	f8df 8054 	ldr.w	r8, [pc, #84]	@ 10001e08 <IO_IRQ_BANK0_Handler+0x70>
10001db4:	3648      	adds	r6, #72	@ 0x48
10001db6:	19af      	adds	r7, r5, r6
10001db8:	e002      	b.n	10001dc0 <IO_IRQ_BANK0_Handler+0x28>
10001dba:	602b      	str	r3, [r5, #0]
10001dbc:	6883      	ldr	r3, [r0, #8]
10001dbe:	b9f3      	cbnz	r3, 10001dfe <IO_IRQ_BANK0_Handler+0x66>
10001dc0:	683a      	ldr	r2, [r7, #0]
10001dc2:	fa92 f3a2 	rbit	r3, r2
10001dc6:	2a00      	cmp	r2, #0
10001dc8:	fab3 f383 	clz	r3, r3
10001dcc:	bf08      	it	eq
10001dce:	f04f 33ff 	moveq.w	r3, #4294967295	@ 0xffffffff
10001dd2:	f103 0301 	add.w	r3, r3, #1
10001dd6:	b2db      	uxtb	r3, r3
10001dd8:	f103 33ff 	add.w	r3, r3, #4294967295	@ 0xffffffff
10001ddc:	b2db      	uxtb	r3, r3
10001dde:	eb04 0093 	add.w	r0, r4, r3, lsr #2
10001de2:	b280      	uxth	r0, r0
10001de4:	fa09 f303 	lsl.w	r3, r9, r3
10001de8:	eb08 1000 	add.w	r0, r8, r0, lsl #4
10001dec:	d1e5      	bne.n	10001dba <IO_IRQ_BANK0_Handler+0x22>
10001dee:	3408      	adds	r4, #8
10001df0:	b2a4      	uxth	r4, r4
10001df2:	2c30      	cmp	r4, #48	@ 0x30
10001df4:	f105 0504 	add.w	r5, r5, #4
10001df8:	d1dd      	bne.n	10001db6 <IO_IRQ_BANK0_Handler+0x1e>
10001dfa:	e8bd 83f8 	ldmia.w	sp!, {r3, r4, r5, r6, r7, r8, r9, pc}
10001dfe:	68c3      	ldr	r3, [r0, #12]
10001e00:	4798      	blx	r3
10001e02:	e7dd      	b.n	10001dc0 <IO_IRQ_BANK0_Handler+0x28>
10001e04:	40028230 	.word	0x40028230
10001e08:	20000060 	.word	0x20000060

10001e0c <_GLOBAL__sub_I__ZN11gpio_rp235011_intHandlerE>:
10001e0c:	2200      	movs	r2, #0
10001e0e:	480a      	ldr	r0, [pc, #40]	@ (10001e38 <_GLOBAL__sub_I__ZN11gpio_rp235011_intHandlerE+0x2c>)
10001e10:	e9c0 2200 	strd	r2, r2, [r0]
10001e14:	e9c0 2202 	strd	r2, r2, [r0, #8]
10001e18:	f100 0310 	add.w	r3, r0, #16
10001e1c:	f500 7140 	add.w	r1, r0, #768	@ 0x300
10001e20:	e9c3 2200 	strd	r2, r2, [r3]
10001e24:	e9c3 2202 	strd	r2, r2, [r3, #8]
10001e28:	3310      	adds	r3, #16
10001e2a:	428b      	cmp	r3, r1
10001e2c:	d1f8      	bne.n	10001e20 <_GLOBAL__sub_I__ZN11gpio_rp235011_intHandlerE+0x14>
10001e2e:	2000      	movs	r0, #0
10001e30:	4a02      	ldr	r2, [pc, #8]	@ (10001e3c <_GLOBAL__sub_I__ZN11gpio_rp235011_intHandlerE+0x30>)
10001e32:	4903      	ldr	r1, [pc, #12]	@ (10001e40 <_GLOBAL__sub_I__ZN11gpio_rp235011_intHandlerE+0x34>)
10001e34:	f001 bfbc 	b.w	10003db0 <__aeabi_atexit>
10001e38:	20000060 	.word	0x20000060
10001e3c:	20000000 	.word	0x20000000
10001e40:	1000186d 	.word	0x1000186d

10001e44 <__tcf_0>:
10001e44:	b510      	push	{r4, lr}
10001e46:	4c08      	ldr	r4, [pc, #32]	@ (10001e68 <__tcf_0+0x24>)
10001e48:	69a3      	ldr	r3, [r4, #24]
10001e4a:	b123      	cbz	r3, 10001e56 <__tcf_0+0x12>
10001e4c:	f104 0110 	add.w	r1, r4, #16
10001e50:	2203      	movs	r2, #3
10001e52:	4608      	mov	r0, r1
10001e54:	4798      	blx	r3
10001e56:	68a3      	ldr	r3, [r4, #8]
10001e58:	b12b      	cbz	r3, 10001e66 <__tcf_0+0x22>
10001e5a:	e8bd 4010 	ldmia.w	sp!, {r4, lr}
10001e5e:	4902      	ldr	r1, [pc, #8]	@ (10001e68 <__tcf_0+0x24>)
10001e60:	2203      	movs	r2, #3
10001e62:	4608      	mov	r0, r1
10001e64:	4718      	bx	r3
10001e66:	bd10      	pop	{r4, pc}
10001e68:	20000460 	.word	0x20000460

10001e6c <spi_rp2350::~spi_rp2350()>:
10001e6c:	b510      	push	{r4, lr}
10001e6e:	4a15      	ldr	r2, [pc, #84]	@ (10001ec4 <spi_rp2350::~spi_rp2350()+0x58>)
10001e70:	f890 3040 	ldrb.w	r3, [r0, #64]	@ 0x40
10001e74:	4604      	mov	r4, r0
10001e76:	6002      	str	r2, [r0, #0]
10001e78:	b1c3      	cbz	r3, 10001eac <spi_rp2350::~spi_rp2350()+0x40>
10001e7a:	6c82      	ldr	r2, [r0, #72]	@ 0x48
10001e7c:	68d3      	ldr	r3, [r2, #12]
10001e7e:	06db      	lsls	r3, r3, #27
10001e80:	d4fc      	bmi.n	10001e7c <spi_rp2350::~spi_rp2350()+0x10>
10001e82:	6863      	ldr	r3, [r4, #4]
10001e84:	b9c3      	cbnz	r3, 10001eb8 <spi_rp2350::~spi_rp2350()+0x4c>
10001e86:	f44f 2280 	mov.w	r2, #262144	@ 0x40000
10001e8a:	4b0f      	ldr	r3, [pc, #60]	@ (10001ec8 <spi_rp2350::~spi_rp2350()+0x5c>)
10001e8c:	601a      	str	r2, [r3, #0]
10001e8e:	211f      	movs	r1, #31
10001e90:	f104 0008 	add.w	r0, r4, #8
10001e94:	f7ff fe38 	bl	10001b08 <gpio_rp2350::setSEL(unsigned char) const>
10001e98:	211f      	movs	r1, #31
10001e9a:	f104 0018 	add.w	r0, r4, #24
10001e9e:	f7ff fe33 	bl	10001b08 <gpio_rp2350::setSEL(unsigned char) const>
10001ea2:	211f      	movs	r1, #31
10001ea4:	f104 0028 	add.w	r0, r4, #40	@ 0x28
10001ea8:	f7ff fe2e 	bl	10001b08 <gpio_rp2350::setSEL(unsigned char) const>
10001eac:	4620      	mov	r0, r4
10001eae:	2154      	movs	r1, #84	@ 0x54
10001eb0:	f001 ff83 	bl	10003dba <operator delete(void*, unsigned int)>
10001eb4:	4620      	mov	r0, r4
10001eb6:	bd10      	pop	{r4, pc}
10001eb8:	f44f 2200 	mov.w	r2, #524288	@ 0x80000
10001ebc:	4b02      	ldr	r3, [pc, #8]	@ (10001ec8 <spi_rp2350::~spi_rp2350()+0x5c>)
10001ebe:	601a      	str	r2, [r3, #0]
10001ec0:	e7e5      	b.n	10001e8e <spi_rp2350::~spi_rp2350()+0x22>
10001ec2:	bf00      	nop
10001ec4:	10004758 	.word	0x10004758
10001ec8:	40022000 	.word	0x40022000

10001ecc <spi_rp2350::spiAttachRxIrq(std::function<void (unsigned char)>)>:
10001ecc:	2300      	movs	r3, #0
10001ece:	b5f0      	push	{r4, r5, r6, r7, lr}
10001ed0:	b087      	sub	sp, #28
10001ed2:	ad02      	add	r5, sp, #8
10001ed4:	9302      	str	r3, [sp, #8]
10001ed6:	4c1c      	ldr	r4, [pc, #112]	@ (10001f48 <spi_rp2350::spiAttachRxIrq(std::function<void (unsigned char)>)+0x7c>)
10001ed8:	e9c5 3301 	strd	r3, r3, [r5, #4]
10001edc:	9305      	str	r3, [sp, #20]
10001ede:	6843      	ldr	r3, [r0, #4]
10001ee0:	4607      	mov	r7, r0
10001ee2:	eb04 1403 	add.w	r4, r4, r3, lsl #4
10001ee6:	688b      	ldr	r3, [r1, #8]
10001ee8:	b35b      	cbz	r3, 10001f42 <spi_rp2350::spiAttachRxIrq(std::function<void (unsigned char)>)+0x76>
10001eea:	460e      	mov	r6, r1
10001eec:	2202      	movs	r2, #2
10001eee:	4628      	mov	r0, r5
10001ef0:	4798      	blx	r3
10001ef2:	e9d6 3102 	ldrd	r3, r1, [r6, #8]
10001ef6:	68a6      	ldr	r6, [r4, #8]
10001ef8:	60a3      	str	r3, [r4, #8]
10001efa:	9604      	str	r6, [sp, #16]
10001efc:	68e3      	ldr	r3, [r4, #12]
10001efe:	60e1      	str	r1, [r4, #12]
10001f00:	e895 0003 	ldmia.w	r5, {r0, r1}
10001f04:	e9cd 0100 	strd	r0, r1, [sp]
10001f08:	e894 0003 	ldmia.w	r4, {r0, r1}
10001f0c:	9305      	str	r3, [sp, #20]
10001f0e:	e885 0003 	stmia.w	r5, {r0, r1}
10001f12:	e9dd 0100 	ldrd	r0, r1, [sp]
10001f16:	e884 0003 	stmia.w	r4, {r0, r1}
10001f1a:	b11e      	cbz	r6, 10001f24 <spi_rp2350::spiAttachRxIrq(std::function<void (unsigned char)>)+0x58>
10001f1c:	2203      	movs	r2, #3
10001f1e:	4629      	mov	r1, r5
10001f20:	4628      	mov	r0, r5
10001f22:	47b0      	blx	r6
10001f24:	687b      	ldr	r3, [r7, #4]
10001f26:	331f      	adds	r3, #31
10001f28:	b2da      	uxtb	r2, r3
10001f2a:	061b      	lsls	r3, r3, #24
10001f2c:	d407      	bmi.n	10001f3e <spi_rp2350::spiAttachRxIrq(std::function<void (unsigned char)>)+0x72>
10001f2e:	2301      	movs	r3, #1
10001f30:	f002 001f 	and.w	r0, r2, #31
10001f34:	4905      	ldr	r1, [pc, #20]	@ (10001f4c <spi_rp2350::spiAttachRxIrq(std::function<void (unsigned char)>)+0x80>)
10001f36:	0952      	lsrs	r2, r2, #5
10001f38:	4083      	lsls	r3, r0
10001f3a:	f841 3022 	str.w	r3, [r1, r2, lsl #2]
10001f3e:	b007      	add	sp, #28
10001f40:	bdf0      	pop	{r4, r5, r6, r7, pc}
10001f42:	4619      	mov	r1, r3
10001f44:	e7d7      	b.n	10001ef6 <spi_rp2350::spiAttachRxIrq(std::function<void (unsigned char)>)+0x2a>
10001f46:	bf00      	nop
10001f48:	20000460 	.word	0x20000460
10001f4c:	e000e100 	.word	0xe000e100

10001f50 <spi_rp2350::~spi_rp2350()>:
10001f50:	b510      	push	{r4, lr}
10001f52:	4a13      	ldr	r2, [pc, #76]	@ (10001fa0 <spi_rp2350::~spi_rp2350()+0x50>)
10001f54:	f890 3040 	ldrb.w	r3, [r0, #64]	@ 0x40
10001f58:	4604      	mov	r4, r0
10001f5a:	6002      	str	r2, [r0, #0]
10001f5c:	b1c3      	cbz	r3, 10001f90 <spi_rp2350::~spi_rp2350()+0x40>
10001f5e:	6c82      	ldr	r2, [r0, #72]	@ 0x48
10001f60:	68d3      	ldr	r3, [r2, #12]
10001f62:	06db      	lsls	r3, r3, #27
10001f64:	d4fc      	bmi.n	10001f60 <spi_rp2350::~spi_rp2350()+0x10>
10001f66:	6863      	ldr	r3, [r4, #4]
10001f68:	b9a3      	cbnz	r3, 10001f94 <spi_rp2350::~spi_rp2350()+0x44>
10001f6a:	f44f 2280 	mov.w	r2, #262144	@ 0x40000
10001f6e:	4b0d      	ldr	r3, [pc, #52]	@ (10001fa4 <spi_rp2350::~spi_rp2350()+0x54>)
10001f70:	601a      	str	r2, [r3, #0]
10001f72:	211f      	movs	r1, #31
10001f74:	f104 0008 	add.w	r0, r4, #8
10001f78:	f7ff fdc6 	bl	10001b08 <gpio_rp2350::setSEL(unsigned char) const>
10001f7c:	211f      	movs	r1, #31
10001f7e:	f104 0018 	add.w	r0, r4, #24
10001f82:	f7ff fdc1 	bl	10001b08 <gpio_rp2350::setSEL(unsigned char) const>
10001f86:	211f      	movs	r1, #31
10001f88:	f104 0028 	add.w	r0, r4, #40	@ 0x28
10001f8c:	f7ff fdbc 	bl	10001b08 <gpio_rp2350::setSEL(unsigned char) const>
10001f90:	4620      	mov	r0, r4
10001f92:	bd10      	pop	{r4, pc}
10001f94:	f44f 2200 	mov.w	r2, #524288	@ 0x80000
10001f98:	4b02      	ldr	r3, [pc, #8]	@ (10001fa4 <spi_rp2350::~spi_rp2350()+0x54>)
10001f9a:	601a      	str	r2, [r3, #0]
10001f9c:	e7e9      	b.n	10001f72 <spi_rp2350::~spi_rp2350()+0x22>
10001f9e:	bf00      	nop
10001fa0:	10004758 	.word	0x10004758
10001fa4:	40022000 	.word	0x40022000

10001fa8 <spi_rp2350::generateCS(bool)>:
10001fa8:	b538      	push	{r3, r4, r5, lr}
10001faa:	f890 3040 	ldrb.w	r3, [r0, #64]	@ 0x40
10001fae:	4604      	mov	r4, r0
10001fb0:	460d      	mov	r5, r1
10001fb2:	b113      	cbz	r3, 10001fba <spi_rp2350::generateCS(bool)+0x12>
10001fb4:	f884 5041 	strb.w	r5, [r4, #65]	@ 0x41
10001fb8:	bd38      	pop	{r3, r4, r5, pc}
10001fba:	6843      	ldr	r3, [r0, #4]
10001fbc:	2b00      	cmp	r3, #0
10001fbe:	d133      	bne.n	10002028 <spi_rp2350::generateCS(bool)+0x80>
10001fc0:	f44f 2280 	mov.w	r2, #262144	@ 0x40000
10001fc4:	4b1b      	ldr	r3, [pc, #108]	@ (10002034 <spi_rp2350::generateCS(bool)+0x8c>)
10001fc6:	601a      	str	r2, [r3, #0]
10001fc8:	2101      	movs	r1, #1
10001fca:	f104 0008 	add.w	r0, r4, #8
10001fce:	f7ff fd9b 	bl	10001b08 <gpio_rp2350::setSEL(unsigned char) const>
10001fd2:	2101      	movs	r1, #1
10001fd4:	f104 0018 	add.w	r0, r4, #24
10001fd8:	f7ff fd96 	bl	10001b08 <gpio_rp2350::setSEL(unsigned char) const>
10001fdc:	2101      	movs	r1, #1
10001fde:	f104 0028 	add.w	r0, r4, #40	@ 0x28
10001fe2:	f7ff fd91 	bl	10001b08 <gpio_rp2350::setSEL(unsigned char) const>
10001fe6:	6ba0      	ldr	r0, [r4, #56]	@ 0x38
10001fe8:	f894 203c 	ldrb.w	r2, [r4, #60]	@ 0x3c
10001fec:	6803      	ldr	r3, [r0, #0]
10001fee:	2a00      	cmp	r2, #0
10001ff0:	689b      	ldr	r3, [r3, #8]
10001ff2:	bf0c      	ite	eq
10001ff4:	2101      	moveq	r1, #1
10001ff6:	f44f 7181 	movne.w	r1, #258	@ 0x102
10001ffa:	4798      	blx	r3
10001ffc:	6ce3      	ldr	r3, [r4, #76]	@ 0x4c
10001ffe:	8fe2      	ldrh	r2, [r4, #62]	@ 0x3e
10002000:	601a      	str	r2, [r3, #0]
10002002:	f894 303c 	ldrb.w	r3, [r4, #60]	@ 0x3c
10002006:	b923      	cbnz	r3, 10002012 <spi_rp2350::generateCS(bool)+0x6a>
10002008:	6ce2      	ldr	r2, [r4, #76]	@ 0x4c
1000200a:	6853      	ldr	r3, [r2, #4]
1000200c:	f043 0304 	orr.w	r3, r3, #4
10002010:	6053      	str	r3, [r2, #4]
10002012:	2101      	movs	r1, #1
10002014:	6ce2      	ldr	r2, [r4, #76]	@ 0x4c
10002016:	6853      	ldr	r3, [r2, #4]
10002018:	f043 0302 	orr.w	r3, r3, #2
1000201c:	6053      	str	r3, [r2, #4]
1000201e:	f884 1040 	strb.w	r1, [r4, #64]	@ 0x40
10002022:	f884 5041 	strb.w	r5, [r4, #65]	@ 0x41
10002026:	bd38      	pop	{r3, r4, r5, pc}
10002028:	f44f 2200 	mov.w	r2, #524288	@ 0x80000
1000202c:	4b01      	ldr	r3, [pc, #4]	@ (10002034 <spi_rp2350::generateCS(bool)+0x8c>)
1000202e:	601a      	str	r2, [r3, #0]
10002030:	e7ca      	b.n	10001fc8 <spi_rp2350::generateCS(bool)+0x20>
10002032:	bf00      	nop
10002034:	40023000 	.word	0x40023000

10002038 <spi_rp2350::spi_rp2350(unsigned short, unsigned short, unsigned short, gpio_interface&, bool, unsigned short)>:
10002038:	e92d 4ff0 	stmdb	sp!, {r4, r5, r6, r7, r8, r9, sl, fp, lr}
1000203c:	4604      	mov	r4, r0
1000203e:	4616      	mov	r6, r2
10002040:	461d      	mov	r5, r3
10002042:	4ba2      	ldr	r3, [pc, #648]	@ (100022cc <spi_rp2350::spi_rp2350(unsigned short, unsigned short, unsigned short, gpio_interface&, bool, unsigned short)+0x294>)
10002044:	b083      	sub	sp, #12
10002046:	f840 3b08 	str.w	r3, [r0], #8
1000204a:	460f      	mov	r7, r1
1000204c:	f89d 9034 	ldrb.w	r9, [sp, #52]	@ 0x34
10002050:	f8bd 8038 	ldrh.w	r8, [sp, #56]	@ 0x38
10002054:	f7ff fd3e 	bl	10001ad4 <gpio_rp2350::gpio_rp2350(unsigned short)>
10002058:	4631      	mov	r1, r6
1000205a:	f104 0018 	add.w	r0, r4, #24
1000205e:	f7ff fd39 	bl	10001ad4 <gpio_rp2350::gpio_rp2350(unsigned short)>
10002062:	4629      	mov	r1, r5
10002064:	f104 0028 	add.w	r0, r4, #40	@ 0x28
10002068:	f7ff fd34 	bl	10001ad4 <gpio_rp2350::gpio_rp2350(unsigned short)>
1000206c:	9b0c      	ldr	r3, [sp, #48]	@ 0x30
1000206e:	2000      	movs	r0, #0
10002070:	63a3      	str	r3, [r4, #56]	@ 0x38
10002072:	4b97      	ldr	r3, [pc, #604]	@ (100022d0 <spi_rp2350::spi_rp2350(unsigned short, unsigned short, unsigned short, gpio_interface&, bool, unsigned short)+0x298>)
10002074:	f8a4 803e 	strh.w	r8, [r4, #62]	@ 0x3e
10002078:	f993 c000 	ldrsb.w	ip, [r3]
1000207c:	f993 e001 	ldrsb.w	lr, [r3, #1]
10002080:	f10c 0203 	add.w	r2, ip, #3
10002084:	f10e 0b03 	add.w	fp, lr, #3
10002088:	42b2      	cmp	r2, r6
1000208a:	bf18      	it	ne
1000208c:	45b3      	cmpne	fp, r6
1000208e:	f10c 0102 	add.w	r1, ip, #2
10002092:	f10e 0202 	add.w	r2, lr, #2
10002096:	bf0c      	ite	eq
10002098:	f04f 0b01 	moveq.w	fp, #1
1000209c:	f04f 0b00 	movne.w	fp, #0
100020a0:	42a9      	cmp	r1, r5
100020a2:	bf18      	it	ne
100020a4:	42aa      	cmpne	r2, r5
100020a6:	bf0c      	ite	eq
100020a8:	2201      	moveq	r2, #1
100020aa:	2200      	movne	r2, #0
100020ac:	f993 8002 	ldrsb.w	r8, [r3, #2]
100020b0:	6460      	str	r0, [r4, #68]	@ 0x44
100020b2:	6060      	str	r0, [r4, #4]
100020b4:	f108 0003 	add.w	r0, r8, #3
100020b8:	42b0      	cmp	r0, r6
100020ba:	bf08      	it	eq
100020bc:	f04b 0b01 	orreq.w	fp, fp, #1
100020c0:	f108 0002 	add.w	r0, r8, #2
100020c4:	42a8      	cmp	r0, r5
100020c6:	bf08      	it	eq
100020c8:	f042 0201 	orreq.w	r2, r2, #1
100020cc:	f993 1003 	ldrsb.w	r1, [r3, #3]
100020d0:	f884 903c 	strb.w	r9, [r4, #60]	@ 0x3c
100020d4:	1cc8      	adds	r0, r1, #3
100020d6:	42b0      	cmp	r0, r6
100020d8:	bf08      	it	eq
100020da:	f04b 0b01 	orreq.w	fp, fp, #1
100020de:	1c88      	adds	r0, r1, #2
100020e0:	42a8      	cmp	r0, r5
100020e2:	bf08      	it	eq
100020e4:	f042 0201 	orreq.w	r2, r2, #1
100020e8:	f44f 7980 	mov.w	r9, #256	@ 0x100
100020ec:	9200      	str	r2, [sp, #0]
100020ee:	465a      	mov	r2, fp
100020f0:	f8a4 9040 	strh.w	r9, [r4, #64]	@ 0x40
100020f4:	f993 9004 	ldrsb.w	r9, [r3, #4]
100020f8:	f993 0005 	ldrsb.w	r0, [r3, #5]
100020fc:	f109 0a03 	add.w	sl, r9, #3
10002100:	45b2      	cmp	sl, r6
10002102:	bf08      	it	eq
10002104:	f042 0201 	orreq.w	r2, r2, #1
10002108:	9201      	str	r2, [sp, #4]
1000210a:	9a00      	ldr	r2, [sp, #0]
1000210c:	f109 0a02 	add.w	sl, r9, #2
10002110:	45aa      	cmp	sl, r5
10002112:	bf08      	it	eq
10002114:	f042 0201 	orreq.w	r2, r2, #1
10002118:	42b8      	cmp	r0, r7
1000211a:	f100 0b03 	add.w	fp, r0, #3
1000211e:	f100 0a02 	add.w	sl, r0, #2
10002122:	f000 80a2 	beq.w	1000226a <spi_rp2350::spi_rp2350(unsigned short, unsigned short, unsigned short, gpio_interface&, bool, unsigned short)+0x232>
10002126:	45b9      	cmp	r9, r7
10002128:	bf18      	it	ne
1000212a:	42b9      	cmpne	r1, r7
1000212c:	bf0c      	ite	eq
1000212e:	2101      	moveq	r1, #1
10002130:	2100      	movne	r1, #0
10002132:	45b8      	cmp	r8, r7
10002134:	bf08      	it	eq
10002136:	f041 0101 	orreq.w	r1, r1, #1
1000213a:	45be      	cmp	lr, r7
1000213c:	bf08      	it	eq
1000213e:	f041 0101 	orreq.w	r1, r1, #1
10002142:	45bc      	cmp	ip, r7
10002144:	bf08      	it	eq
10002146:	f041 0101 	orreq.w	r1, r1, #1
1000214a:	45b3      	cmp	fp, r6
1000214c:	d078      	beq.n	10002240 <spi_rp2350::spi_rp2350(unsigned short, unsigned short, unsigned short, gpio_interface&, bool, unsigned short)+0x208>
1000214e:	45aa      	cmp	sl, r5
10002150:	f000 80a9 	beq.w	100022a6 <spi_rp2350::spi_rp2350(unsigned short, unsigned short, unsigned short, gpio_interface&, bool, unsigned short)+0x26e>
10002154:	2900      	cmp	r1, #0
10002156:	f040 808e 	bne.w	10002276 <spi_rp2350::spi_rp2350(unsigned short, unsigned short, unsigned short, gpio_interface&, bool, unsigned short)+0x23e>
1000215a:	f993 0006 	ldrsb.w	r0, [r3, #6]
1000215e:	f993 c007 	ldrsb.w	ip, [r3, #7]
10002162:	1cc1      	adds	r1, r0, #3
10002164:	f10c 0203 	add.w	r2, ip, #3
10002168:	42b1      	cmp	r1, r6
1000216a:	bf18      	it	ne
1000216c:	42b2      	cmpne	r2, r6
1000216e:	f10c 0802 	add.w	r8, ip, #2
10002172:	f100 0102 	add.w	r1, r0, #2
10002176:	bf0c      	ite	eq
10002178:	2201      	moveq	r2, #1
1000217a:	2200      	movne	r2, #0
1000217c:	42a9      	cmp	r1, r5
1000217e:	bf18      	it	ne
10002180:	45a8      	cmpne	r8, r5
10002182:	bf0c      	ite	eq
10002184:	f04f 0801 	moveq.w	r8, #1
10002188:	f04f 0800 	movne.w	r8, #0
1000218c:	f993 e008 	ldrsb.w	lr, [r3, #8]
10002190:	f993 1009 	ldrsb.w	r1, [r3, #9]
10002194:	f10e 0903 	add.w	r9, lr, #3
10002198:	45b1      	cmp	r9, r6
1000219a:	bf08      	it	eq
1000219c:	f042 0201 	orreq.w	r2, r2, #1
100021a0:	f10e 0902 	add.w	r9, lr, #2
100021a4:	45a9      	cmp	r9, r5
100021a6:	bf08      	it	eq
100021a8:	f048 0801 	orreq.w	r8, r8, #1
100021ac:	f101 0903 	add.w	r9, r1, #3
100021b0:	45b1      	cmp	r9, r6
100021b2:	bf08      	it	eq
100021b4:	f042 0201 	orreq.w	r2, r2, #1
100021b8:	f101 0902 	add.w	r9, r1, #2
100021bc:	45a9      	cmp	r9, r5
100021be:	bf08      	it	eq
100021c0:	f048 0801 	orreq.w	r8, r8, #1
100021c4:	f04f 0901 	mov.w	r9, #1
100021c8:	f993 a00a 	ldrsb.w	sl, [r3, #10]
100021cc:	f993 b00b 	ldrsb.w	fp, [r3, #11]
100021d0:	f8c4 9004 	str.w	r9, [r4, #4]
100021d4:	f10a 0303 	add.w	r3, sl, #3
100021d8:	f10a 0902 	add.w	r9, sl, #2
100021dc:	42b3      	cmp	r3, r6
100021de:	bf08      	it	eq
100021e0:	f042 0201 	orreq.w	r2, r2, #1
100021e4:	45a9      	cmp	r9, r5
100021e6:	bf14      	ite	ne
100021e8:	4643      	movne	r3, r8
100021ea:	f048 0301 	orreq.w	r3, r8, #1
100021ee:	45bb      	cmp	fp, r7
100021f0:	f10b 0903 	add.w	r9, fp, #3
100021f4:	f10b 0802 	add.w	r8, fp, #2
100021f8:	d02c      	beq.n	10002254 <spi_rp2350::spi_rp2350(unsigned short, unsigned short, unsigned short, gpio_interface&, bool, unsigned short)+0x21c>
100021fa:	45ba      	cmp	sl, r7
100021fc:	bf18      	it	ne
100021fe:	42b9      	cmpne	r1, r7
10002200:	bf0c      	ite	eq
10002202:	2101      	moveq	r1, #1
10002204:	2100      	movne	r1, #0
10002206:	45be      	cmp	lr, r7
10002208:	bf08      	it	eq
1000220a:	f041 0101 	orreq.w	r1, r1, #1
1000220e:	45bc      	cmp	ip, r7
10002210:	bf08      	it	eq
10002212:	f041 0101 	orreq.w	r1, r1, #1
10002216:	42b8      	cmp	r0, r7
10002218:	bf08      	it	eq
1000221a:	f041 0101 	orreq.w	r1, r1, #1
1000221e:	454e      	cmp	r6, r9
10002220:	d02e      	beq.n	10002280 <spi_rp2350::spi_rp2350(unsigned short, unsigned short, unsigned short, gpio_interface&, bool, unsigned short)+0x248>
10002222:	4545      	cmp	r5, r8
10002224:	d03a      	beq.n	1000229c <spi_rp2350::spi_rp2350(unsigned short, unsigned short, unsigned short, gpio_interface&, bool, unsigned short)+0x264>
10002226:	b9d9      	cbnz	r1, 10002260 <spi_rp2350::spi_rp2350(unsigned short, unsigned short, unsigned short, gpio_interface&, bool, unsigned short)+0x228>
10002228:	2302      	movs	r3, #2
1000222a:	6063      	str	r3, [r4, #4]
1000222c:	4929      	ldr	r1, [pc, #164]	@ (100022d4 <spi_rp2350::spi_rp2350(unsigned short, unsigned short, unsigned short, gpio_interface&, bool, unsigned short)+0x29c>)
1000222e:	4a2a      	ldr	r2, [pc, #168]	@ (100022d8 <spi_rp2350::spi_rp2350(unsigned short, unsigned short, unsigned short, gpio_interface&, bool, unsigned short)+0x2a0>)
10002230:	4b2a      	ldr	r3, [pc, #168]	@ (100022dc <spi_rp2350::spi_rp2350(unsigned short, unsigned short, unsigned short, gpio_interface&, bool, unsigned short)+0x2a4>)
10002232:	4620      	mov	r0, r4
10002234:	e9c4 2112 	strd	r2, r1, [r4, #72]	@ 0x48
10002238:	6523      	str	r3, [r4, #80]	@ 0x50
1000223a:	b003      	add	sp, #12
1000223c:	e8bd 8ff0 	ldmia.w	sp!, {r4, r5, r6, r7, r8, r9, sl, fp, pc}
10002240:	45aa      	cmp	sl, r5
10002242:	d027      	beq.n	10002294 <spi_rp2350::spi_rp2350(unsigned short, unsigned short, unsigned short, gpio_interface&, bool, unsigned short)+0x25c>
10002244:	2900      	cmp	r1, #0
10002246:	d088      	beq.n	1000215a <spi_rp2350::spi_rp2350(unsigned short, unsigned short, unsigned short, gpio_interface&, bool, unsigned short)+0x122>
10002248:	2a00      	cmp	r2, #0
1000224a:	d086      	beq.n	1000215a <spi_rp2350::spi_rp2350(unsigned short, unsigned short, unsigned short, gpio_interface&, bool, unsigned short)+0x122>
1000224c:	4924      	ldr	r1, [pc, #144]	@ (100022e0 <spi_rp2350::spi_rp2350(unsigned short, unsigned short, unsigned short, gpio_interface&, bool, unsigned short)+0x2a8>)
1000224e:	4a25      	ldr	r2, [pc, #148]	@ (100022e4 <spi_rp2350::spi_rp2350(unsigned short, unsigned short, unsigned short, gpio_interface&, bool, unsigned short)+0x2ac>)
10002250:	4b25      	ldr	r3, [pc, #148]	@ (100022e8 <spi_rp2350::spi_rp2350(unsigned short, unsigned short, unsigned short, gpio_interface&, bool, unsigned short)+0x2b0>)
10002252:	e7ee      	b.n	10002232 <spi_rp2350::spi_rp2350(unsigned short, unsigned short, unsigned short, gpio_interface&, bool, unsigned short)+0x1fa>
10002254:	454e      	cmp	r6, r9
10002256:	d02e      	beq.n	100022b6 <spi_rp2350::spi_rp2350(unsigned short, unsigned short, unsigned short, gpio_interface&, bool, unsigned short)+0x27e>
10002258:	4545      	cmp	r5, r8
1000225a:	bf08      	it	eq
1000225c:	f043 0301 	orreq.w	r3, r3, #1
10002260:	2a00      	cmp	r2, #0
10002262:	d0e1      	beq.n	10002228 <spi_rp2350::spi_rp2350(unsigned short, unsigned short, unsigned short, gpio_interface&, bool, unsigned short)+0x1f0>
10002264:	2b00      	cmp	r3, #0
10002266:	d0df      	beq.n	10002228 <spi_rp2350::spi_rp2350(unsigned short, unsigned short, unsigned short, gpio_interface&, bool, unsigned short)+0x1f0>
10002268:	e7e0      	b.n	1000222c <spi_rp2350::spi_rp2350(unsigned short, unsigned short, unsigned short, gpio_interface&, bool, unsigned short)+0x1f4>
1000226a:	45b3      	cmp	fp, r6
1000226c:	d028      	beq.n	100022c0 <spi_rp2350::spi_rp2350(unsigned short, unsigned short, unsigned short, gpio_interface&, bool, unsigned short)+0x288>
1000226e:	45aa      	cmp	sl, r5
10002270:	bf08      	it	eq
10002272:	f042 0201 	orreq.w	r2, r2, #1
10002276:	9901      	ldr	r1, [sp, #4]
10002278:	2900      	cmp	r1, #0
1000227a:	f43f af6e 	beq.w	1000215a <spi_rp2350::spi_rp2350(unsigned short, unsigned short, unsigned short, gpio_interface&, bool, unsigned short)+0x122>
1000227e:	e7e3      	b.n	10002248 <spi_rp2350::spi_rp2350(unsigned short, unsigned short, unsigned short, gpio_interface&, bool, unsigned short)+0x210>
10002280:	4545      	cmp	r5, r8
10002282:	d004      	beq.n	1000228e <spi_rp2350::spi_rp2350(unsigned short, unsigned short, unsigned short, gpio_interface&, bool, unsigned short)+0x256>
10002284:	2900      	cmp	r1, #0
10002286:	d0cf      	beq.n	10002228 <spi_rp2350::spi_rp2350(unsigned short, unsigned short, unsigned short, gpio_interface&, bool, unsigned short)+0x1f0>
10002288:	2b00      	cmp	r3, #0
1000228a:	d0cd      	beq.n	10002228 <spi_rp2350::spi_rp2350(unsigned short, unsigned short, unsigned short, gpio_interface&, bool, unsigned short)+0x1f0>
1000228c:	e7ce      	b.n	1000222c <spi_rp2350::spi_rp2350(unsigned short, unsigned short, unsigned short, gpio_interface&, bool, unsigned short)+0x1f4>
1000228e:	2900      	cmp	r1, #0
10002290:	d0ca      	beq.n	10002228 <spi_rp2350::spi_rp2350(unsigned short, unsigned short, unsigned short, gpio_interface&, bool, unsigned short)+0x1f0>
10002292:	e7cb      	b.n	1000222c <spi_rp2350::spi_rp2350(unsigned short, unsigned short, unsigned short, gpio_interface&, bool, unsigned short)+0x1f4>
10002294:	2900      	cmp	r1, #0
10002296:	f43f af60 	beq.w	1000215a <spi_rp2350::spi_rp2350(unsigned short, unsigned short, unsigned short, gpio_interface&, bool, unsigned short)+0x122>
1000229a:	e7d7      	b.n	1000224c <spi_rp2350::spi_rp2350(unsigned short, unsigned short, unsigned short, gpio_interface&, bool, unsigned short)+0x214>
1000229c:	2900      	cmp	r1, #0
1000229e:	d0c3      	beq.n	10002228 <spi_rp2350::spi_rp2350(unsigned short, unsigned short, unsigned short, gpio_interface&, bool, unsigned short)+0x1f0>
100022a0:	2a00      	cmp	r2, #0
100022a2:	d0c1      	beq.n	10002228 <spi_rp2350::spi_rp2350(unsigned short, unsigned short, unsigned short, gpio_interface&, bool, unsigned short)+0x1f0>
100022a4:	e7c2      	b.n	1000222c <spi_rp2350::spi_rp2350(unsigned short, unsigned short, unsigned short, gpio_interface&, bool, unsigned short)+0x1f4>
100022a6:	2900      	cmp	r1, #0
100022a8:	f43f af57 	beq.w	1000215a <spi_rp2350::spi_rp2350(unsigned short, unsigned short, unsigned short, gpio_interface&, bool, unsigned short)+0x122>
100022ac:	9a01      	ldr	r2, [sp, #4]
100022ae:	2a00      	cmp	r2, #0
100022b0:	f43f af53 	beq.w	1000215a <spi_rp2350::spi_rp2350(unsigned short, unsigned short, unsigned short, gpio_interface&, bool, unsigned short)+0x122>
100022b4:	e7ca      	b.n	1000224c <spi_rp2350::spi_rp2350(unsigned short, unsigned short, unsigned short, gpio_interface&, bool, unsigned short)+0x214>
100022b6:	4545      	cmp	r5, r8
100022b8:	d0b8      	beq.n	1000222c <spi_rp2350::spi_rp2350(unsigned short, unsigned short, unsigned short, gpio_interface&, bool, unsigned short)+0x1f4>
100022ba:	2b00      	cmp	r3, #0
100022bc:	d0b4      	beq.n	10002228 <spi_rp2350::spi_rp2350(unsigned short, unsigned short, unsigned short, gpio_interface&, bool, unsigned short)+0x1f0>
100022be:	e7b5      	b.n	1000222c <spi_rp2350::spi_rp2350(unsigned short, unsigned short, unsigned short, gpio_interface&, bool, unsigned short)+0x1f4>
100022c0:	45aa      	cmp	sl, r5
100022c2:	d0c3      	beq.n	1000224c <spi_rp2350::spi_rp2350(unsigned short, unsigned short, unsigned short, gpio_interface&, bool, unsigned short)+0x214>
100022c4:	2a00      	cmp	r2, #0
100022c6:	f43f af48 	beq.w	1000215a <spi_rp2350::spi_rp2350(unsigned short, unsigned short, unsigned short, gpio_interface&, bool, unsigned short)+0x122>
100022ca:	e7bf      	b.n	1000224c <spi_rp2350::spi_rp2350(unsigned short, unsigned short, unsigned short, gpio_interface&, bool, unsigned short)+0x214>
100022cc:	10004758 	.word	0x10004758
100022d0:	20000004 	.word	0x20000004
100022d4:	4008a000 	.word	0x4008a000
100022d8:	40088000 	.word	0x40088000
100022dc:	4008b000 	.word	0x4008b000
100022e0:	40082000 	.word	0x40082000
100022e4:	40080000 	.word	0x40080000
100022e8:	40083000 	.word	0x40083000

100022ec <spi_rp2350::init()>:
100022ec:	b510      	push	{r4, lr}
100022ee:	6843      	ldr	r3, [r0, #4]
100022f0:	4604      	mov	r4, r0
100022f2:	2b00      	cmp	r3, #0
100022f4:	d031      	beq.n	1000235a <spi_rp2350::init()+0x6e>
100022f6:	f44f 2200 	mov.w	r2, #524288	@ 0x80000
100022fa:	4b1a      	ldr	r3, [pc, #104]	@ (10002364 <spi_rp2350::init()+0x78>)
100022fc:	601a      	str	r2, [r3, #0]
100022fe:	2101      	movs	r1, #1
10002300:	f104 0008 	add.w	r0, r4, #8
10002304:	f7ff fc00 	bl	10001b08 <gpio_rp2350::setSEL(unsigned char) const>
10002308:	2101      	movs	r1, #1
1000230a:	f104 0018 	add.w	r0, r4, #24
1000230e:	f7ff fbfb 	bl	10001b08 <gpio_rp2350::setSEL(unsigned char) const>
10002312:	2101      	movs	r1, #1
10002314:	f104 0028 	add.w	r0, r4, #40	@ 0x28
10002318:	f7ff fbf6 	bl	10001b08 <gpio_rp2350::setSEL(unsigned char) const>
1000231c:	6ba0      	ldr	r0, [r4, #56]	@ 0x38
1000231e:	f894 203c 	ldrb.w	r2, [r4, #60]	@ 0x3c
10002322:	6803      	ldr	r3, [r0, #0]
10002324:	2a00      	cmp	r2, #0
10002326:	689b      	ldr	r3, [r3, #8]
10002328:	bf0c      	ite	eq
1000232a:	2101      	moveq	r1, #1
1000232c:	f44f 7181 	movne.w	r1, #258	@ 0x102
10002330:	4798      	blx	r3
10002332:	6ce3      	ldr	r3, [r4, #76]	@ 0x4c
10002334:	8fe2      	ldrh	r2, [r4, #62]	@ 0x3e
10002336:	601a      	str	r2, [r3, #0]
10002338:	f894 303c 	ldrb.w	r3, [r4, #60]	@ 0x3c
1000233c:	b923      	cbnz	r3, 10002348 <spi_rp2350::init()+0x5c>
1000233e:	6ce2      	ldr	r2, [r4, #76]	@ 0x4c
10002340:	6853      	ldr	r3, [r2, #4]
10002342:	f043 0304 	orr.w	r3, r3, #4
10002346:	6053      	str	r3, [r2, #4]
10002348:	2101      	movs	r1, #1
1000234a:	6ce2      	ldr	r2, [r4, #76]	@ 0x4c
1000234c:	6853      	ldr	r3, [r2, #4]
1000234e:	f043 0302 	orr.w	r3, r3, #2
10002352:	6053      	str	r3, [r2, #4]
10002354:	f884 1040 	strb.w	r1, [r4, #64]	@ 0x40
10002358:	bd10      	pop	{r4, pc}
1000235a:	f44f 2280 	mov.w	r2, #262144	@ 0x40000
1000235e:	4b01      	ldr	r3, [pc, #4]	@ (10002364 <spi_rp2350::init()+0x78>)
10002360:	601a      	str	r2, [r3, #0]
10002362:	e7cc      	b.n	100022fe <spi_rp2350::init()+0x12>
10002364:	40023000 	.word	0x40023000

10002368 <spi_rp2350::setCS(bool)>:
10002368:	b570      	push	{r4, r5, r6, lr}
1000236a:	f890 3040 	ldrb.w	r3, [r0, #64]	@ 0x40
1000236e:	4604      	mov	r4, r0
10002370:	460d      	mov	r5, r1
10002372:	b133      	cbz	r3, 10002382 <spi_rp2350::setCS(bool)+0x1a>
10002374:	6ba0      	ldr	r0, [r4, #56]	@ 0x38
10002376:	4629      	mov	r1, r5
10002378:	e8bd 4070 	ldmia.w	sp!, {r4, r5, r6, lr}
1000237c:	6803      	ldr	r3, [r0, #0]
1000237e:	691b      	ldr	r3, [r3, #16]
10002380:	4718      	bx	r3
10002382:	f7ff ffb3 	bl	100022ec <spi_rp2350::init()>
10002386:	e7f5      	b.n	10002374 <spi_rp2350::setCS(bool)+0xc>

10002388 <spi_rp2350::spiTxRx(unsigned char const*, unsigned char*, unsigned short)>:
10002388:	b5f8      	push	{r3, r4, r5, r6, r7, lr}
1000238a:	461d      	mov	r5, r3
1000238c:	f890 3040 	ldrb.w	r3, [r0, #64]	@ 0x40
10002390:	4604      	mov	r4, r0
10002392:	460e      	mov	r6, r1
10002394:	4617      	mov	r7, r2
10002396:	2b00      	cmp	r3, #0
10002398:	d042      	beq.n	10002420 <spi_rp2350::spiTxRx(unsigned char const*, unsigned char*, unsigned short)+0x98>
1000239a:	f894 303c 	ldrb.w	r3, [r4, #60]	@ 0x3c
1000239e:	b353      	cbz	r3, 100023f6 <spi_rp2350::spiTxRx(unsigned char const*, unsigned char*, unsigned short)+0x6e>
100023a0:	f894 3041 	ldrb.w	r3, [r4, #65]	@ 0x41
100023a4:	2b00      	cmp	r3, #0
100023a6:	d038      	beq.n	1000241a <spi_rp2350::spiTxRx(unsigned char const*, unsigned char*, unsigned short)+0x92>
100023a8:	6ba0      	ldr	r0, [r4, #56]	@ 0x38
100023aa:	2100      	movs	r1, #0
100023ac:	6803      	ldr	r3, [r0, #0]
100023ae:	691b      	ldr	r3, [r3, #16]
100023b0:	4798      	blx	r3
100023b2:	b1ad      	cbz	r5, 100023e0 <spi_rp2350::spiTxRx(unsigned char const*, unsigned char*, unsigned short)+0x58>
100023b4:	f106 3cff 	add.w	ip, r6, #4294967295	@ 0xffffffff
100023b8:	1e78      	subs	r0, r7, #1
100023ba:	f1c7 0601 	rsb	r6, r7, #1
100023be:	6ca1      	ldr	r1, [r4, #72]	@ 0x48
100023c0:	68ca      	ldr	r2, [r1, #12]
100023c2:	0792      	lsls	r2, r2, #30
100023c4:	d5fc      	bpl.n	100023c0 <spi_rp2350::spiTxRx(unsigned char const*, unsigned char*, unsigned short)+0x38>
100023c6:	f81c 3f01 	ldrb.w	r3, [ip, #1]!
100023ca:	608b      	str	r3, [r1, #8]
100023cc:	6ca1      	ldr	r1, [r4, #72]	@ 0x48
100023ce:	68ca      	ldr	r2, [r1, #12]
100023d0:	0753      	lsls	r3, r2, #29
100023d2:	d5fc      	bpl.n	100023ce <spi_rp2350::spiTxRx(unsigned char const*, unsigned char*, unsigned short)+0x46>
100023d4:	688b      	ldr	r3, [r1, #8]
100023d6:	f800 3f01 	strb.w	r3, [r0, #1]!
100023da:	1833      	adds	r3, r6, r0
100023dc:	42ab      	cmp	r3, r5
100023de:	dbee      	blt.n	100023be <spi_rp2350::spiTxRx(unsigned char const*, unsigned char*, unsigned short)+0x36>
100023e0:	f894 303c 	ldrb.w	r3, [r4, #60]	@ 0x3c
100023e4:	b973      	cbnz	r3, 10002404 <spi_rp2350::spiTxRx(unsigned char const*, unsigned char*, unsigned short)+0x7c>
100023e6:	6ba0      	ldr	r0, [r4, #56]	@ 0x38
100023e8:	6803      	ldr	r3, [r0, #0]
100023ea:	68db      	ldr	r3, [r3, #12]
100023ec:	4798      	blx	r3
100023ee:	2800      	cmp	r0, #0
100023f0:	d0f9      	beq.n	100023e6 <spi_rp2350::spiTxRx(unsigned char const*, unsigned char*, unsigned short)+0x5e>
100023f2:	b228      	sxth	r0, r5
100023f4:	bdf8      	pop	{r3, r4, r5, r6, r7, pc}
100023f6:	6ba0      	ldr	r0, [r4, #56]	@ 0x38
100023f8:	6803      	ldr	r3, [r0, #0]
100023fa:	68db      	ldr	r3, [r3, #12]
100023fc:	4798      	blx	r3
100023fe:	2800      	cmp	r0, #0
10002400:	d1f9      	bne.n	100023f6 <spi_rp2350::spiTxRx(unsigned char const*, unsigned char*, unsigned short)+0x6e>
10002402:	e7d6      	b.n	100023b2 <spi_rp2350::spiTxRx(unsigned char const*, unsigned char*, unsigned short)+0x2a>
10002404:	f894 3041 	ldrb.w	r3, [r4, #65]	@ 0x41
10002408:	2b00      	cmp	r3, #0
1000240a:	d0f2      	beq.n	100023f2 <spi_rp2350::spiTxRx(unsigned char const*, unsigned char*, unsigned short)+0x6a>
1000240c:	6ba0      	ldr	r0, [r4, #56]	@ 0x38
1000240e:	2101      	movs	r1, #1
10002410:	6803      	ldr	r3, [r0, #0]
10002412:	691b      	ldr	r3, [r3, #16]
10002414:	4798      	blx	r3
10002416:	b228      	sxth	r0, r5
10002418:	bdf8      	pop	{r3, r4, r5, r6, r7, pc}
1000241a:	2d00      	cmp	r5, #0
1000241c:	d1ca      	bne.n	100023b4 <spi_rp2350::spiTxRx(unsigned char const*, unsigned char*, unsigned short)+0x2c>
1000241e:	e7e8      	b.n	100023f2 <spi_rp2350::spiTxRx(unsigned char const*, unsigned char*, unsigned short)+0x6a>
10002420:	f7ff ff64 	bl	100022ec <spi_rp2350::init()>
10002424:	e7b9      	b.n	1000239a <spi_rp2350::spiTxRx(unsigned char const*, unsigned char*, unsigned short)+0x12>
10002426:	bf00      	nop

10002428 <spi_rp2350::spiTx(unsigned char const*, unsigned short)>:
10002428:	b570      	push	{r4, r5, r6, lr}
1000242a:	f890 3040 	ldrb.w	r3, [r0, #64]	@ 0x40
1000242e:	4604      	mov	r4, r0
10002430:	460e      	mov	r6, r1
10002432:	4615      	mov	r5, r2
10002434:	2b00      	cmp	r3, #0
10002436:	d040      	beq.n	100024ba <spi_rp2350::spiTx(unsigned char const*, unsigned short)+0x92>
10002438:	f894 303c 	ldrb.w	r3, [r4, #60]	@ 0x3c
1000243c:	b343      	cbz	r3, 10002490 <spi_rp2350::spiTx(unsigned char const*, unsigned short)+0x68>
1000243e:	f894 3041 	ldrb.w	r3, [r4, #65]	@ 0x41
10002442:	2b00      	cmp	r3, #0
10002444:	d036      	beq.n	100024b4 <spi_rp2350::spiTx(unsigned char const*, unsigned short)+0x8c>
10002446:	6ba0      	ldr	r0, [r4, #56]	@ 0x38
10002448:	2100      	movs	r1, #0
1000244a:	6803      	ldr	r3, [r0, #0]
1000244c:	691b      	ldr	r3, [r3, #16]
1000244e:	4798      	blx	r3
10002450:	b19d      	cbz	r5, 1000247a <spi_rp2350::spiTx(unsigned char const*, unsigned short)+0x52>
10002452:	6ca3      	ldr	r3, [r4, #72]	@ 0x48
10002454:	f106 3eff 	add.w	lr, r6, #4294967295	@ 0xffffffff
10002458:	f1c6 0001 	rsb	r0, r6, #1
1000245c:	68d9      	ldr	r1, [r3, #12]
1000245e:	0789      	lsls	r1, r1, #30
10002460:	d5fc      	bpl.n	1000245c <spi_rp2350::spiTx(unsigned char const*, unsigned short)+0x34>
10002462:	f81e 2f01 	ldrb.w	r2, [lr, #1]!
10002466:	609a      	str	r2, [r3, #8]
10002468:	6ca3      	ldr	r3, [r4, #72]	@ 0x48
1000246a:	68d9      	ldr	r1, [r3, #12]
1000246c:	074a      	lsls	r2, r1, #29
1000246e:	d5fc      	bpl.n	1000246a <spi_rp2350::spiTx(unsigned char const*, unsigned short)+0x42>
10002470:	eb00 0c0e 	add.w	ip, r0, lr
10002474:	45ac      	cmp	ip, r5
10002476:	689a      	ldr	r2, [r3, #8]
10002478:	dbf0      	blt.n	1000245c <spi_rp2350::spiTx(unsigned char const*, unsigned short)+0x34>
1000247a:	f894 303c 	ldrb.w	r3, [r4, #60]	@ 0x3c
1000247e:	b973      	cbnz	r3, 1000249e <spi_rp2350::spiTx(unsigned char const*, unsigned short)+0x76>
10002480:	6ba0      	ldr	r0, [r4, #56]	@ 0x38
10002482:	6803      	ldr	r3, [r0, #0]
10002484:	68db      	ldr	r3, [r3, #12]
10002486:	4798      	blx	r3
10002488:	2800      	cmp	r0, #0
1000248a:	d0f9      	beq.n	10002480 <spi_rp2350::spiTx(unsigned char const*, unsigned short)+0x58>
1000248c:	b228      	sxth	r0, r5
1000248e:	bd70      	pop	{r4, r5, r6, pc}
10002490:	6ba0      	ldr	r0, [r4, #56]	@ 0x38
10002492:	6803      	ldr	r3, [r0, #0]
10002494:	68db      	ldr	r3, [r3, #12]
10002496:	4798      	blx	r3
10002498:	2800      	cmp	r0, #0
1000249a:	d1f9      	bne.n	10002490 <spi_rp2350::spiTx(unsigned char const*, unsigned short)+0x68>
1000249c:	e7d8      	b.n	10002450 <spi_rp2350::spiTx(unsigned char const*, unsigned short)+0x28>
1000249e:	f894 3041 	ldrb.w	r3, [r4, #65]	@ 0x41
100024a2:	2b00      	cmp	r3, #0
100024a4:	d0f2      	beq.n	1000248c <spi_rp2350::spiTx(unsigned char const*, unsigned short)+0x64>
100024a6:	6ba0      	ldr	r0, [r4, #56]	@ 0x38
100024a8:	2101      	movs	r1, #1
100024aa:	6803      	ldr	r3, [r0, #0]
100024ac:	691b      	ldr	r3, [r3, #16]
100024ae:	4798      	blx	r3
100024b0:	b228      	sxth	r0, r5
100024b2:	bd70      	pop	{r4, r5, r6, pc}
100024b4:	2d00      	cmp	r5, #0
100024b6:	d1cc      	bne.n	10002452 <spi_rp2350::spiTx(unsigned char const*, unsigned short)+0x2a>
100024b8:	e7e8      	b.n	1000248c <spi_rp2350::spiTx(unsigned char const*, unsigned short)+0x64>
100024ba:	f7ff ff17 	bl	100022ec <spi_rp2350::init()>
100024be:	e7bb      	b.n	10002438 <spi_rp2350::spiTx(unsigned char const*, unsigned short)+0x10>

100024c0 <spi_rp2350::spiRx(unsigned char, unsigned char*, unsigned short)>:
100024c0:	b5f8      	push	{r3, r4, r5, r6, r7, lr}
100024c2:	461d      	mov	r5, r3
100024c4:	f890 3040 	ldrb.w	r3, [r0, #64]	@ 0x40
100024c8:	4604      	mov	r4, r0
100024ca:	460e      	mov	r6, r1
100024cc:	4617      	mov	r7, r2
100024ce:	2b00      	cmp	r3, #0
100024d0:	d040      	beq.n	10002554 <spi_rp2350::spiRx(unsigned char, unsigned char*, unsigned short)+0x94>
100024d2:	f894 303c 	ldrb.w	r3, [r4, #60]	@ 0x3c
100024d6:	b343      	cbz	r3, 1000252a <spi_rp2350::spiRx(unsigned char, unsigned char*, unsigned short)+0x6a>
100024d8:	f894 3041 	ldrb.w	r3, [r4, #65]	@ 0x41
100024dc:	2b00      	cmp	r3, #0
100024de:	d036      	beq.n	1000254e <spi_rp2350::spiRx(unsigned char, unsigned char*, unsigned short)+0x8e>
100024e0:	6ba0      	ldr	r0, [r4, #56]	@ 0x38
100024e2:	2100      	movs	r1, #0
100024e4:	6803      	ldr	r3, [r0, #0]
100024e6:	691b      	ldr	r3, [r3, #16]
100024e8:	4798      	blx	r3
100024ea:	b19d      	cbz	r5, 10002514 <spi_rp2350::spiRx(unsigned char, unsigned char*, unsigned short)+0x54>
100024ec:	f107 3cff 	add.w	ip, r7, #4294967295	@ 0xffffffff
100024f0:	f1c7 0101 	rsb	r1, r7, #1
100024f4:	6ca0      	ldr	r0, [r4, #72]	@ 0x48
100024f6:	68c2      	ldr	r2, [r0, #12]
100024f8:	0792      	lsls	r2, r2, #30
100024fa:	d5fc      	bpl.n	100024f6 <spi_rp2350::spiRx(unsigned char, unsigned char*, unsigned short)+0x36>
100024fc:	6086      	str	r6, [r0, #8]
100024fe:	6ca0      	ldr	r0, [r4, #72]	@ 0x48
10002500:	68c2      	ldr	r2, [r0, #12]
10002502:	0753      	lsls	r3, r2, #29
10002504:	d5fc      	bpl.n	10002500 <spi_rp2350::spiRx(unsigned char, unsigned char*, unsigned short)+0x40>
10002506:	6883      	ldr	r3, [r0, #8]
10002508:	f80c 3f01 	strb.w	r3, [ip, #1]!
1000250c:	eb01 030c 	add.w	r3, r1, ip
10002510:	42ab      	cmp	r3, r5
10002512:	dbef      	blt.n	100024f4 <spi_rp2350::spiRx(unsigned char, unsigned char*, unsigned short)+0x34>
10002514:	f894 303c 	ldrb.w	r3, [r4, #60]	@ 0x3c
10002518:	b973      	cbnz	r3, 10002538 <spi_rp2350::spiRx(unsigned char, unsigned char*, unsigned short)+0x78>
1000251a:	6ba0      	ldr	r0, [r4, #56]	@ 0x38
1000251c:	6803      	ldr	r3, [r0, #0]
1000251e:	68db      	ldr	r3, [r3, #12]
10002520:	4798      	blx	r3
10002522:	2800      	cmp	r0, #0
10002524:	d0f9      	beq.n	1000251a <spi_rp2350::spiRx(unsigned char, unsigned char*, unsigned short)+0x5a>
10002526:	b228      	sxth	r0, r5
10002528:	bdf8      	pop	{r3, r4, r5, r6, r7, pc}
1000252a:	6ba0      	ldr	r0, [r4, #56]	@ 0x38
1000252c:	6803      	ldr	r3, [r0, #0]
1000252e:	68db      	ldr	r3, [r3, #12]
10002530:	4798      	blx	r3
10002532:	2800      	cmp	r0, #0
10002534:	d1f9      	bne.n	1000252a <spi_rp2350::spiRx(unsigned char, unsigned char*, unsigned short)+0x6a>
10002536:	e7d8      	b.n	100024ea <spi_rp2350::spiRx(unsigned char, unsigned char*, unsigned short)+0x2a>
10002538:	f894 3041 	ldrb.w	r3, [r4, #65]	@ 0x41
1000253c:	2b00      	cmp	r3, #0
1000253e:	d0f2      	beq.n	10002526 <spi_rp2350::spiRx(unsigned char, unsigned char*, unsigned short)+0x66>
10002540:	6ba0      	ldr	r0, [r4, #56]	@ 0x38
10002542:	2101      	movs	r1, #1
10002544:	6803      	ldr	r3, [r0, #0]
10002546:	691b      	ldr	r3, [r3, #16]
10002548:	4798      	blx	r3
1000254a:	b228      	sxth	r0, r5
1000254c:	bdf8      	pop	{r3, r4, r5, r6, r7, pc}
1000254e:	2d00      	cmp	r5, #0
10002550:	d1cc      	bne.n	100024ec <spi_rp2350::spiRx(unsigned char, unsigned char*, unsigned short)+0x2c>
10002552:	e7e8      	b.n	10002526 <spi_rp2350::spiRx(unsigned char, unsigned char*, unsigned short)+0x66>
10002554:	f7ff feca 	bl	100022ec <spi_rp2350::init()>
10002558:	e7bb      	b.n	100024d2 <spi_rp2350::spiRx(unsigned char, unsigned char*, unsigned short)+0x12>
1000255a:	bf00      	nop

1000255c <spi_rp2350::setSpeed(unsigned long)>:
1000255c:	e92d 41f0 	stmdb	sp!, {r4, r5, r6, r7, r8, lr}
10002560:	f890 3040 	ldrb.w	r3, [r0, #64]	@ 0x40
10002564:	4605      	mov	r5, r0
10002566:	460e      	mov	r6, r1
10002568:	b3bb      	cbz	r3, 100025da <spi_rp2350::setSpeed(unsigned long)+0x7e>
1000256a:	4b20      	ldr	r3, [pc, #128]	@ (100025ec <spi_rp2350::setSpeed(unsigned long)+0x90>)
1000256c:	2100      	movs	r1, #0
1000256e:	681c      	ldr	r4, [r3, #0]
10002570:	f04f 0c02 	mov.w	ip, #2
10002574:	0df7      	lsrs	r7, r6, #23
10002576:	0270      	lsls	r0, r6, #9
10002578:	ea4f 5e96 	mov.w	lr, r6, lsr #22
1000257c:	02b3      	lsls	r3, r6, #10
1000257e:	e005      	b.n	1000258c <spi_rp2350::setSpeed(unsigned long)+0x30>
10002580:	18c3      	adds	r3, r0, r3
10002582:	eb4e 0e07 	adc.w	lr, lr, r7
10002586:	f5bc 7f80 	cmp.w	ip, #256	@ 0x100
1000258a:	d02c      	beq.n	100025e6 <spi_rp2350::setSpeed(unsigned long)+0x8a>
1000258c:	429c      	cmp	r4, r3
1000258e:	eb71 080e 	sbcs.w	r8, r1, lr
10002592:	4662      	mov	r2, ip
10002594:	f10c 0c02 	add.w	ip, ip, #2
10002598:	d2f2      	bcs.n	10002580 <spi_rp2350::setSpeed(unsigned long)+0x24>
1000259a:	f44f 7380 	mov.w	r3, #256	@ 0x100
1000259e:	ebc2 2c02 	rsb	ip, r2, r2, lsl #8
100025a2:	e001      	b.n	100025a8 <spi_rp2350::setSpeed(unsigned long)+0x4c>
100025a4:	2b01      	cmp	r3, #1
100025a6:	d01b      	beq.n	100025e0 <spi_rp2350::setSpeed(unsigned long)+0x84>
100025a8:	fbb4 f1fc 	udiv	r1, r4, ip
100025ac:	42b1      	cmp	r1, r6
100025ae:	4618      	mov	r0, r3
100025b0:	ebac 0c02 	sub.w	ip, ip, r2
100025b4:	f103 33ff 	add.w	r3, r3, #4294967295	@ 0xffffffff
100025b8:	d9f4      	bls.n	100025a4 <spi_rp2350::setSpeed(unsigned long)+0x48>
100025ba:	fb02 f000 	mul.w	r0, r2, r0
100025be:	021b      	lsls	r3, r3, #8
100025c0:	fbb4 f4f0 	udiv	r4, r4, r0
100025c4:	6ca9      	ldr	r1, [r5, #72]	@ 0x48
100025c6:	610a      	str	r2, [r1, #16]
100025c8:	6ca9      	ldr	r1, [r5, #72]	@ 0x48
100025ca:	680a      	ldr	r2, [r1, #0]
100025cc:	f422 427f 	bic.w	r2, r2, #65280	@ 0xff00
100025d0:	4313      	orrs	r3, r2
100025d2:	600b      	str	r3, [r1, #0]
100025d4:	646c      	str	r4, [r5, #68]	@ 0x44
100025d6:	e8bd 81f0 	ldmia.w	sp!, {r4, r5, r6, r7, r8, pc}
100025da:	f7ff fe87 	bl	100022ec <spi_rp2350::init()>
100025de:	e7c4      	b.n	1000256a <spi_rp2350::setSpeed(unsigned long)+0xe>
100025e0:	4610      	mov	r0, r2
100025e2:	2300      	movs	r3, #0
100025e4:	e7ec      	b.n	100025c0 <spi_rp2350::setSpeed(unsigned long)+0x64>
100025e6:	4662      	mov	r2, ip
100025e8:	e7d7      	b.n	1000259a <spi_rp2350::setSpeed(unsigned long)+0x3e>
100025ea:	bf00      	nop
100025ec:	20000450 	.word	0x20000450

100025f0 <SPI0_IRQ_Handler>:
100025f0:	b500      	push	{lr}
100025f2:	4b08      	ldr	r3, [pc, #32]	@ (10002614 <SPI0_IRQ_Handler+0x24>)
100025f4:	4808      	ldr	r0, [pc, #32]	@ (10002618 <SPI0_IRQ_Handler+0x28>)
100025f6:	689a      	ldr	r2, [r3, #8]
100025f8:	6883      	ldr	r3, [r0, #8]
100025fa:	b083      	sub	sp, #12
100025fc:	f88d 2007 	strb.w	r2, [sp, #7]
10002600:	b133      	cbz	r3, 10002610 <SPI0_IRQ_Handler+0x20>
10002602:	68c3      	ldr	r3, [r0, #12]
10002604:	f10d 0107 	add.w	r1, sp, #7
10002608:	4798      	blx	r3
1000260a:	b003      	add	sp, #12
1000260c:	f85d fb04 	ldr.w	pc, [sp], #4
10002610:	f000 fc02 	bl	10002e18 <__yahal_bad_function_call>
10002614:	40080000 	.word	0x40080000
10002618:	20000460 	.word	0x20000460

1000261c <SPI1_IRQ_Handler>:
1000261c:	b500      	push	{lr}
1000261e:	4b09      	ldr	r3, [pc, #36]	@ (10002644 <SPI1_IRQ_Handler+0x28>)
10002620:	4809      	ldr	r0, [pc, #36]	@ (10002648 <SPI1_IRQ_Handler+0x2c>)
10002622:	689a      	ldr	r2, [r3, #8]
10002624:	6983      	ldr	r3, [r0, #24]
10002626:	b083      	sub	sp, #12
10002628:	f88d 2007 	strb.w	r2, [sp, #7]
1000262c:	b13b      	cbz	r3, 1000263e <SPI1_IRQ_Handler+0x22>
1000262e:	69c3      	ldr	r3, [r0, #28]
10002630:	f10d 0107 	add.w	r1, sp, #7
10002634:	3010      	adds	r0, #16
10002636:	4798      	blx	r3
10002638:	b003      	add	sp, #12
1000263a:	f85d fb04 	ldr.w	pc, [sp], #4
1000263e:	f000 fbeb 	bl	10002e18 <__yahal_bad_function_call>
10002642:	bf00      	nop
10002644:	40088000 	.word	0x40088000
10002648:	20000460 	.word	0x20000460

1000264c <_GLOBAL__sub_I__ZN10spi_rp235011_intHandlerE>:
1000264c:	2000      	movs	r0, #0
1000264e:	4b06      	ldr	r3, [pc, #24]	@ (10002668 <_GLOBAL__sub_I__ZN10spi_rp235011_intHandlerE+0x1c>)
10002650:	4a06      	ldr	r2, [pc, #24]	@ (1000266c <_GLOBAL__sub_I__ZN10spi_rp235011_intHandlerE+0x20>)
10002652:	4907      	ldr	r1, [pc, #28]	@ (10002670 <_GLOBAL__sub_I__ZN10spi_rp235011_intHandlerE+0x24>)
10002654:	e9c3 0000 	strd	r0, r0, [r3]
10002658:	e9c3 0002 	strd	r0, r0, [r3, #8]
1000265c:	e9c3 0005 	strd	r0, r0, [r3, #20]
10002660:	6118      	str	r0, [r3, #16]
10002662:	61d8      	str	r0, [r3, #28]
10002664:	f001 bba4 	b.w	10003db0 <__aeabi_atexit>
10002668:	20000460 	.word	0x20000460
1000266c:	20000000 	.word	0x20000000
10002670:	10001e45 	.word	0x10001e45

10002674 <ClockUpdate>:
10002674:	e92d 4ff0 	stmdb	sp!, {r4, r5, r6, r7, r8, r9, sl, fp, lr}
10002678:	4b38      	ldr	r3, [pc, #224]	@ (1000275c <ClockUpdate+0xe8>)
1000267a:	4a39      	ldr	r2, [pc, #228]	@ (10002760 <ClockUpdate+0xec>)
1000267c:	6819      	ldr	r1, [r3, #0]
1000267e:	689d      	ldr	r5, [r3, #8]
10002680:	68dc      	ldr	r4, [r3, #12]
10002682:	68d8      	ldr	r0, [r3, #12]
10002684:	4b37      	ldr	r3, [pc, #220]	@ (10002764 <ClockUpdate+0xf0>)
10002686:	f001 013f 	and.w	r1, r1, #63	@ 0x3f
1000268a:	fbb3 f1f1 	udiv	r1, r3, r1
1000268e:	fb05 f101 	mul.w	r1, r5, r1
10002692:	f3c4 4402 	ubfx	r4, r4, #16, #3
10002696:	fbb1 f1f4 	udiv	r1, r1, r4
1000269a:	f3c0 3002 	ubfx	r0, r0, #12, #3
1000269e:	fbb1 f1f0 	udiv	r1, r1, r0
100026a2:	6810      	ldr	r0, [r2, #0]
100026a4:	f8df c0d8 	ldr.w	ip, [pc, #216]	@ 10002780 <ClockUpdate+0x10c>
100026a8:	f000 003f 	and.w	r0, r0, #63	@ 0x3f
100026ac:	fbb3 f3f0 	udiv	r3, r3, r0
100026b0:	6890      	ldr	r0, [r2, #8]
100026b2:	f8df b0d0 	ldr.w	fp, [pc, #208]	@ 10002784 <ClockUpdate+0x110>
100026b6:	fb00 f303 	mul.w	r3, r0, r3
100026ba:	68d0      	ldr	r0, [r2, #12]
100026bc:	68d4      	ldr	r4, [r2, #12]
100026be:	f3c0 4202 	ubfx	r2, r0, #16, #3
100026c2:	fbb3 f3f2 	udiv	r3, r3, r2
100026c6:	f3c4 3902 	ubfx	r9, r4, #12, #3
100026ca:	fbb3 f3f9 	udiv	r3, r3, r9
100026ce:	f8dc 0034 	ldr.w	r0, [ip, #52]	@ 0x34
100026d2:	4a25      	ldr	r2, [pc, #148]	@ (10002768 <ClockUpdate+0xf4>)
100026d4:	f3c0 4007 	ubfx	r0, r0, #16, #8
100026d8:	fbb3 f0f0 	udiv	r0, r3, r0
100026dc:	6010      	str	r0, [r2, #0]
100026de:	f8dc 2040 	ldr.w	r2, [ip, #64]	@ 0x40
100026e2:	f8df e0a4 	ldr.w	lr, [pc, #164]	@ 10002788 <ClockUpdate+0x114>
100026e6:	0c12      	lsrs	r2, r2, #16
100026e8:	fbb1 f2f2 	udiv	r2, r1, r2
100026ec:	f8cb 2000 	str.w	r2, [fp]
100026f0:	fbae 1e02 	umull	r1, lr, lr, r2
100026f4:	f8dc 104c 	ldr.w	r1, [ip, #76]	@ 0x4c
100026f8:	4f1c      	ldr	r7, [pc, #112]	@ (1000276c <ClockUpdate+0xf8>)
100026fa:	f3c1 4101 	ubfx	r1, r1, #16, #2
100026fe:	fbb3 f1f1 	udiv	r1, r3, r1
10002702:	6039      	str	r1, [r7, #0]
10002704:	f8dc 1058 	ldr.w	r1, [ip, #88]	@ 0x58
10002708:	4e19      	ldr	r6, [pc, #100]	@ (10002770 <ClockUpdate+0xfc>)
1000270a:	f3c1 4101 	ubfx	r1, r1, #16, #2
1000270e:	fbb3 f1f1 	udiv	r1, r3, r1
10002712:	6031      	str	r1, [r6, #0]
10002714:	f8dc 1064 	ldr.w	r1, [ip, #100]	@ 0x64
10002718:	f8df 8070 	ldr.w	r8, [pc, #112]	@ 1000278c <ClockUpdate+0x118>
1000271c:	f3c1 4103 	ubfx	r1, r1, #16, #4
10002720:	fbb3 f1f1 	udiv	r1, r3, r1
10002724:	fba8 8202 	umull	r8, r2, r8, r2
10002728:	4d12      	ldr	r5, [pc, #72]	@ (10002774 <ClockUpdate+0x100>)
1000272a:	f8df a064 	ldr.w	sl, [pc, #100]	@ 10002790 <ClockUpdate+0x11c>
1000272e:	6029      	str	r1, [r5, #0]
10002730:	f8dc 1070 	ldr.w	r1, [ip, #112]	@ 0x70
10002734:	f8ca 0000 	str.w	r0, [sl]
10002738:	480f      	ldr	r0, [pc, #60]	@ (10002778 <ClockUpdate+0x104>)
1000273a:	0c92      	lsrs	r2, r2, #18
1000273c:	6002      	str	r2, [r0, #0]
1000273e:	f3c1 4203 	ubfx	r2, r1, #16, #4
10002742:	fbb3 f3f2 	udiv	r3, r3, r2
10002746:	4c0d      	ldr	r4, [pc, #52]	@ (1000277c <ClockUpdate+0x108>)
10002748:	f8df 9048 	ldr.w	r9, [pc, #72]	@ 10002794 <ClockUpdate+0x120>
1000274c:	ea4f 1e9e 	mov.w	lr, lr, lsr #6
10002750:	f8c9 e000 	str.w	lr, [r9]
10002754:	6023      	str	r3, [r4, #0]
10002756:	e8bd 8ff0 	ldmia.w	sp!, {r4, r5, r6, r7, r8, r9, sl, fp, pc}
1000275a:	bf00      	nop
1000275c:	40050000 	.word	0x40050000
10002760:	40058000 	.word	0x40058000
10002764:	00b71b00 	.word	0x00b71b00
10002768:	20000454 	.word	0x20000454
1000276c:	20000450 	.word	0x20000450
10002770:	2000044c 	.word	0x2000044c
10002774:	2000045c 	.word	0x2000045c
10002778:	20000640 	.word	0x20000640
1000277c:	20000448 	.word	0x20000448
10002780:	40010000 	.word	0x40010000
10002784:	20000458 	.word	0x20000458
10002788:	10624dd3 	.word	0x10624dd3
1000278c:	431bde83 	.word	0x431bde83
10002790:	2000063c 	.word	0x2000063c
10002794:	20000644 	.word	0x20000644

10002798 <SystemInit>:
10002798:	f04f 4350 	mov.w	r3, #3489660928	@ 0xd0000000
1000279c:	681b      	ldr	r3, [r3, #0]
1000279e:	2b00      	cmp	r3, #0
100027a0:	f040 8100 	bne.w	100029a4 <SystemInit+0x20c>
100027a4:	f04f 23e0 	mov.w	r3, #3758153728	@ 0xe000e000
100027a8:	f640 30b8 	movw	r0, #3000	@ 0xbb8
100027ac:	b530      	push	{r4, r5, lr}
100027ae:	f8d3 1d88 	ldr.w	r1, [r3, #3464]	@ 0xd88
100027b2:	4c7d      	ldr	r4, [pc, #500]	@ (100029a8 <SystemInit+0x210>)
100027b4:	f441 1140 	orr.w	r1, r1, #3145728	@ 0x300000
100027b8:	f8c3 1d88 	str.w	r1, [r3, #3464]	@ 0xd88
100027bc:	f8d3 1d88 	ldr.w	r1, [r3, #3464]	@ 0xd88
100027c0:	4d7a      	ldr	r5, [pc, #488]	@ (100029ac <SystemInit+0x214>)
100027c2:	4a7b      	ldr	r2, [pc, #492]	@ (100029b0 <SystemInit+0x218>)
100027c4:	f441 0140 	orr.w	r1, r1, #12582912	@ 0xc00000
100027c8:	f8c3 1d88 	str.w	r1, [r3, #3464]	@ 0xd88
100027cc:	6025      	str	r5, [r4, #0]
100027ce:	6813      	ldr	r3, [r2, #0]
100027d0:	f36f 030b 	bfc	r3, #0, #12
100027d4:	f443 632a 	orr.w	r3, r3, #2720	@ 0xaa0
100027d8:	6013      	str	r3, [r2, #0]
100027da:	60d0      	str	r0, [r2, #12]
100027dc:	6813      	ldr	r3, [r2, #0]
100027de:	f36f 3317 	bfc	r3, #12, #12
100027e2:	f443 037a 	orr.w	r3, r3, #16384000	@ 0xfa0000
100027e6:	f443 4330 	orr.w	r3, r3, #45056	@ 0xb000
100027ea:	6013      	str	r3, [r2, #0]
100027ec:	6853      	ldr	r3, [r2, #4]
100027ee:	04d8      	lsls	r0, r3, #19
100027f0:	d5fc      	bpl.n	100027ec <SystemInit+0x54>
100027f2:	4a70      	ldr	r2, [pc, #448]	@ (100029b4 <SystemInit+0x21c>)
100027f4:	6b13      	ldr	r3, [r2, #48]	@ 0x30
100027f6:	f023 0303 	bic.w	r3, r3, #3
100027fa:	6313      	str	r3, [r2, #48]	@ 0x30
100027fc:	6b93      	ldr	r3, [r2, #56]	@ 0x38
100027fe:	2b01      	cmp	r3, #1
10002800:	d1fc      	bne.n	100027fc <SystemInit+0x64>
10002802:	6bd3      	ldr	r3, [r2, #60]	@ 0x3c
10002804:	496b      	ldr	r1, [pc, #428]	@ (100029b4 <SystemInit+0x21c>)
10002806:	f023 0301 	bic.w	r3, r3, #1
1000280a:	63d3      	str	r3, [r2, #60]	@ 0x3c
1000280c:	6c4b      	ldr	r3, [r1, #68]	@ 0x44
1000280e:	2b01      	cmp	r3, #1
10002810:	d1fc      	bne.n	1000280c <SystemInit+0x74>
10002812:	f44f 4380 	mov.w	r3, #16384	@ 0x4000
10002816:	4868      	ldr	r0, [pc, #416]	@ (100029b8 <SystemInit+0x220>)
10002818:	4968      	ldr	r1, [pc, #416]	@ (100029bc <SystemInit+0x224>)
1000281a:	4a63      	ldr	r2, [pc, #396]	@ (100029a8 <SystemInit+0x210>)
1000281c:	6003      	str	r3, [r0, #0]
1000281e:	600b      	str	r3, [r1, #0]
10002820:	6893      	ldr	r3, [r2, #8]
10002822:	0459      	lsls	r1, r3, #17
10002824:	d5fc      	bpl.n	10002820 <SystemInit+0x88>
10002826:	24c8      	movs	r4, #200	@ 0xc8
10002828:	2020      	movs	r0, #32
1000282a:	2101      	movs	r1, #1
1000282c:	4a64      	ldr	r2, [pc, #400]	@ (100029c0 <SystemInit+0x228>)
1000282e:	6813      	ldr	r3, [r2, #0]
10002830:	f023 033f 	bic.w	r3, r3, #63	@ 0x3f
10002834:	f043 0302 	orr.w	r3, r3, #2
10002838:	6013      	str	r3, [r2, #0]
1000283a:	4b62      	ldr	r3, [pc, #392]	@ (100029c4 <SystemInit+0x22c>)
1000283c:	6094      	str	r4, [r2, #8]
1000283e:	6058      	str	r0, [r3, #4]
10002840:	6059      	str	r1, [r3, #4]
10002842:	6813      	ldr	r3, [r2, #0]
10002844:	2b00      	cmp	r3, #0
10002846:	dafc      	bge.n	10002842 <SystemInit+0xaa>
10002848:	f44f 4000 	mov.w	r0, #32768	@ 0x8000
1000284c:	2408      	movs	r4, #8
1000284e:	68d3      	ldr	r3, [r2, #12]
10002850:	495c      	ldr	r1, [pc, #368]	@ (100029c4 <SystemInit+0x22c>)
10002852:	f423 23e0 	bic.w	r3, r3, #458752	@ 0x70000
10002856:	f443 3340 	orr.w	r3, r3, #196608	@ 0x30000
1000285a:	60d3      	str	r3, [r2, #12]
1000285c:	68d3      	ldr	r3, [r2, #12]
1000285e:	f423 43e0 	bic.w	r3, r3, #28672	@ 0x7000
10002862:	f443 5300 	orr.w	r3, r3, #8192	@ 0x2000
10002866:	60d3      	str	r3, [r2, #12]
10002868:	4a53      	ldr	r2, [pc, #332]	@ (100029b8 <SystemInit+0x220>)
1000286a:	4b54      	ldr	r3, [pc, #336]	@ (100029bc <SystemInit+0x224>)
1000286c:	604c      	str	r4, [r1, #4]
1000286e:	6010      	str	r0, [r2, #0]
10002870:	f5a2 5200 	sub.w	r2, r2, #8192	@ 0x2000
10002874:	6018      	str	r0, [r3, #0]
10002876:	6893      	ldr	r3, [r2, #8]
10002878:	041b      	lsls	r3, r3, #16
1000287a:	d5fc      	bpl.n	10002876 <SystemInit+0xde>
1000287c:	2201      	movs	r2, #1
1000287e:	2464      	movs	r4, #100	@ 0x64
10002880:	2020      	movs	r0, #32
10002882:	4951      	ldr	r1, [pc, #324]	@ (100029c8 <SystemInit+0x230>)
10002884:	680b      	ldr	r3, [r1, #0]
10002886:	f023 033f 	bic.w	r3, r3, #63	@ 0x3f
1000288a:	4313      	orrs	r3, r2
1000288c:	600b      	str	r3, [r1, #0]
1000288e:	4b4f      	ldr	r3, [pc, #316]	@ (100029cc <SystemInit+0x234>)
10002890:	608c      	str	r4, [r1, #8]
10002892:	6058      	str	r0, [r3, #4]
10002894:	605a      	str	r2, [r3, #4]
10002896:	680a      	ldr	r2, [r1, #0]
10002898:	0fd2      	lsrs	r2, r2, #31
1000289a:	d0fc      	beq.n	10002896 <SystemInit+0xfe>
1000289c:	2408      	movs	r4, #8
1000289e:	68cb      	ldr	r3, [r1, #12]
100028a0:	484a      	ldr	r0, [pc, #296]	@ (100029cc <SystemInit+0x234>)
100028a2:	f423 23e0 	bic.w	r3, r3, #458752	@ 0x70000
100028a6:	f443 23a0 	orr.w	r3, r3, #327680	@ 0x50000
100028aa:	60cb      	str	r3, [r1, #12]
100028ac:	68cb      	ldr	r3, [r1, #12]
100028ae:	4d48      	ldr	r5, [pc, #288]	@ (100029d0 <SystemInit+0x238>)
100028b0:	f423 43e0 	bic.w	r3, r3, #28672	@ 0x7000
100028b4:	f443 43a0 	orr.w	r3, r3, #20480	@ 0x5000
100028b8:	60cb      	str	r3, [r1, #12]
100028ba:	4b3e      	ldr	r3, [pc, #248]	@ (100029b4 <SystemInit+0x21c>)
100028bc:	f44f 6100 	mov.w	r1, #2048	@ 0x800
100028c0:	6044      	str	r4, [r0, #4]
100028c2:	6b18      	ldr	r0, [r3, #48]	@ 0x30
100028c4:	4c43      	ldr	r4, [pc, #268]	@ (100029d4 <SystemInit+0x23c>)
100028c6:	f020 0060 	bic.w	r0, r0, #96	@ 0x60
100028ca:	6318      	str	r0, [r3, #48]	@ 0x30
100028cc:	6b18      	ldr	r0, [r3, #48]	@ 0x30
100028ce:	f44f 0e00 	mov.w	lr, #8388608	@ 0x800000
100028d2:	f020 0003 	bic.w	r0, r0, #3
100028d6:	f040 0001 	orr.w	r0, r0, #1
100028da:	6318      	str	r0, [r3, #48]	@ 0x30
100028dc:	6b58      	ldr	r0, [r3, #52]	@ 0x34
100028de:	f04f 7c80 	mov.w	ip, #16777216	@ 0x1000000
100028e2:	f420 007f 	bic.w	r0, r0, #16711680	@ 0xff0000
100028e6:	f440 3080 	orr.w	r0, r0, #65536	@ 0x10000
100028ea:	6358      	str	r0, [r3, #52]	@ 0x34
100028ec:	6bd8      	ldr	r0, [r3, #60]	@ 0x3c
100028ee:	f020 00e0 	bic.w	r0, r0, #224	@ 0xe0
100028f2:	63d8      	str	r0, [r3, #60]	@ 0x3c
100028f4:	6bd8      	ldr	r0, [r3, #60]	@ 0x3c
100028f6:	f040 0001 	orr.w	r0, r0, #1
100028fa:	63d8      	str	r0, [r3, #60]	@ 0x3c
100028fc:	6c18      	ldr	r0, [r3, #64]	@ 0x40
100028fe:	b280      	uxth	r0, r0
10002900:	f440 3080 	orr.w	r0, r0, #65536	@ 0x10000
10002904:	6418      	str	r0, [r3, #64]	@ 0x40
10002906:	6c18      	ldr	r0, [r3, #64]	@ 0x40
10002908:	f36f 000f 	bfc	r0, #0, #16
1000290c:	6418      	str	r0, [r3, #64]	@ 0x40
1000290e:	64a9      	str	r1, [r5, #72]	@ 0x48
10002910:	6c98      	ldr	r0, [r3, #72]	@ 0x48
10002912:	f020 00e0 	bic.w	r0, r0, #224	@ 0xe0
10002916:	f040 0040 	orr.w	r0, r0, #64	@ 0x40
1000291a:	6498      	str	r0, [r3, #72]	@ 0x48
1000291c:	6cd8      	ldr	r0, [r3, #76]	@ 0x4c
1000291e:	f420 3040 	bic.w	r0, r0, #196608	@ 0x30000
10002922:	f440 3080 	orr.w	r0, r0, #65536	@ 0x10000
10002926:	64d8      	str	r0, [r3, #76]	@ 0x4c
10002928:	64a1      	str	r1, [r4, #72]	@ 0x48
1000292a:	6569      	str	r1, [r5, #84]	@ 0x54
1000292c:	6d58      	ldr	r0, [r3, #84]	@ 0x54
1000292e:	f020 00e0 	bic.w	r0, r0, #224	@ 0xe0
10002932:	f040 0040 	orr.w	r0, r0, #64	@ 0x40
10002936:	6558      	str	r0, [r3, #84]	@ 0x54
10002938:	6d98      	ldr	r0, [r3, #88]	@ 0x58
1000293a:	f420 3040 	bic.w	r0, r0, #196608	@ 0x30000
1000293e:	f440 3080 	orr.w	r0, r0, #65536	@ 0x10000
10002942:	6598      	str	r0, [r3, #88]	@ 0x58
10002944:	6561      	str	r1, [r4, #84]	@ 0x54
10002946:	6629      	str	r1, [r5, #96]	@ 0x60
10002948:	6e18      	ldr	r0, [r3, #96]	@ 0x60
1000294a:	f020 00e0 	bic.w	r0, r0, #224	@ 0xe0
1000294e:	6618      	str	r0, [r3, #96]	@ 0x60
10002950:	6e58      	ldr	r0, [r3, #100]	@ 0x64
10002952:	f420 2070 	bic.w	r0, r0, #983040	@ 0xf0000
10002956:	f440 3080 	orr.w	r0, r0, #65536	@ 0x10000
1000295a:	6658      	str	r0, [r3, #100]	@ 0x64
1000295c:	6621      	str	r1, [r4, #96]	@ 0x60
1000295e:	66e9      	str	r1, [r5, #108]	@ 0x6c
10002960:	6ed8      	ldr	r0, [r3, #108]	@ 0x6c
10002962:	f020 00e0 	bic.w	r0, r0, #224	@ 0xe0
10002966:	66d8      	str	r0, [r3, #108]	@ 0x6c
10002968:	6f18      	ldr	r0, [r3, #112]	@ 0x70
1000296a:	f420 2070 	bic.w	r0, r0, #983040	@ 0xf0000
1000296e:	f440 3080 	orr.w	r0, r0, #65536	@ 0x10000
10002972:	6718      	str	r0, [r3, #112]	@ 0x70
10002974:	66e1      	str	r1, [r4, #108]	@ 0x6c
10002976:	4918      	ldr	r1, [pc, #96]	@ (100029d8 <SystemInit+0x240>)
10002978:	f503 237a 	add.w	r3, r3, #1024000	@ 0xfa000
1000297c:	604a      	str	r2, [r1, #4]
1000297e:	610a      	str	r2, [r1, #16]
10002980:	601a      	str	r2, [r3, #0]
10002982:	60da      	str	r2, [r3, #12]
10002984:	f5a3 2367 	sub.w	r3, r3, #946176	@ 0xe7000
10002988:	f8c3 e000 	str.w	lr, [r3]
1000298c:	f5a1 21b0 	sub.w	r1, r1, #360448	@ 0x58000
10002990:	f8c3 c000 	str.w	ip, [r3]
10002994:	f503 2315 	add.w	r3, r3, #610304	@ 0x95000
10002998:	638a      	str	r2, [r1, #56]	@ 0x38
1000299a:	639a      	str	r2, [r3, #56]	@ 0x38
1000299c:	e8bd 4030 	ldmia.w	sp!, {r4, r5, lr}
100029a0:	f7ff be68 	b.w	10002674 <ClockUpdate>
100029a4:	e7fe      	b.n	100029a4 <SystemInit+0x20c>
100029a6:	bf00      	nop
100029a8:	40020000 	.word	0x40020000
100029ac:	0478393f 	.word	0x0478393f
100029b0:	40048000 	.word	0x40048000
100029b4:	40010000 	.word	0x40010000
100029b8:	40022000 	.word	0x40022000
100029bc:	40023000 	.word	0x40023000
100029c0:	40050000 	.word	0x40050000
100029c4:	40053000 	.word	0x40053000
100029c8:	40058000 	.word	0x40058000
100029cc:	4005b000 	.word	0x4005b000
100029d0:	40013000 	.word	0x40013000
100029d4:	40012000 	.word	0x40012000
100029d8:	40108000 	.word	0x40108000

100029dc <task::run()>:
100029dc:	6d43      	ldr	r3, [r0, #84]	@ 0x54
100029de:	b113      	cbz	r3, 100029e6 <task::run()+0xa>
100029e0:	6d83      	ldr	r3, [r0, #88]	@ 0x58
100029e2:	304c      	adds	r0, #76	@ 0x4c
100029e4:	4718      	bx	r3
100029e6:	b510      	push	{r4, lr}
100029e8:	f000 fa16 	bl	10002e18 <__yahal_bad_function_call>

100029ec <task::~task()>:
100029ec:	b570      	push	{r4, r5, r6, lr}
100029ee:	4a25      	ldr	r2, [pc, #148]	@ (10002a84 <task::~task()+0x98>)
100029f0:	f890 3040 	ldrb.w	r3, [r0, #64]	@ 0x40
100029f4:	4604      	mov	r4, r0
100029f6:	6002      	str	r2, [r0, #0]
100029f8:	b973      	cbnz	r3, 10002a18 <task::~task()+0x2c>
100029fa:	6b60      	ldr	r0, [r4, #52]	@ 0x34
100029fc:	b108      	cbz	r0, 10002a02 <task::~task()+0x16>
100029fe:	f001 f9de 	bl	10003dbe <operator delete[](void*)>
10002a02:	2200      	movs	r2, #0
10002a04:	6d63      	ldr	r3, [r4, #84]	@ 0x54
10002a06:	6362      	str	r2, [r4, #52]	@ 0x34
10002a08:	b123      	cbz	r3, 10002a14 <task::~task()+0x28>
10002a0a:	f104 014c 	add.w	r1, r4, #76	@ 0x4c
10002a0e:	2203      	movs	r2, #3
10002a10:	4608      	mov	r0, r1
10002a12:	4798      	blx	r3
10002a14:	4620      	mov	r0, r4
10002a16:	bd70      	pop	{r4, r5, r6, pc}
10002a18:	f000 fa7a 	bl	10002f10 <task::enterCritical()>
10002a1c:	f994 2014 	ldrsb.w	r2, [r4, #20]
10002a20:	4b19      	ldr	r3, [pc, #100]	@ (10002a88 <task::~task()+0x9c>)
10002a22:	eb02 0142 	add.w	r1, r2, r2, lsl #1
10002a26:	eb03 0e81 	add.w	lr, r3, r1, lsl #2
10002a2a:	f8de 0008 	ldr.w	r0, [lr, #8]
10002a2e:	ea4f 0c42 	mov.w	ip, r2, lsl #1
10002a32:	2801      	cmp	r0, #1
10002a34:	ea4f 0181 	mov.w	r1, r1, lsl #2
10002a38:	d01e      	beq.n	10002a78 <task::~task()+0x8c>
10002a3a:	e9d4 5611 	ldrd	r5, r6, [r4, #68]	@ 0x44
10002a3e:	6475      	str	r5, [r6, #68]	@ 0x44
10002a40:	6ca6      	ldr	r6, [r4, #72]	@ 0x48
10002a42:	64ae      	str	r6, [r5, #72]	@ 0x48
10002a44:	585d      	ldr	r5, [r3, r1]
10002a46:	42ac      	cmp	r4, r5
10002a48:	bf04      	itt	eq
10002a4a:	6c65      	ldreq	r5, [r4, #68]	@ 0x44
10002a4c:	505d      	streq	r5, [r3, r1]
10002a4e:	eb0c 0102 	add.w	r1, ip, r2
10002a52:	eb03 0181 	add.w	r1, r3, r1, lsl #2
10002a56:	684d      	ldr	r5, [r1, #4]
10002a58:	42ac      	cmp	r4, r5
10002a5a:	bf08      	it	eq
10002a5c:	604e      	streq	r6, [r1, #4]
10002a5e:	4494      	add	ip, r2
10002a60:	eb03 038c 	add.w	r3, r3, ip, lsl #2
10002a64:	3801      	subs	r0, #1
10002a66:	6098      	str	r0, [r3, #8]
10002a68:	2300      	movs	r3, #0
10002a6a:	f884 3040 	strb.w	r3, [r4, #64]	@ 0x40
10002a6e:	f000 fa55 	bl	10002f1c <task::leaveCritical()>
10002a72:	f000 fa43 	bl	10002efc <task::yield()>
10002a76:	e7c0      	b.n	100029fa <task::~task()+0xe>
10002a78:	2500      	movs	r5, #0
10002a7a:	505d      	str	r5, [r3, r1]
10002a7c:	f8ce 5004 	str.w	r5, [lr, #4]
10002a80:	e7ed      	b.n	10002a5e <task::~task()+0x72>
10002a82:	bf00      	nop
10002a84:	10004784 	.word	0x10004784
10002a88:	20000360 	.word	0x20000360

10002a8c <task::~task()>:
10002a8c:	b570      	push	{r4, r5, r6, lr}
10002a8e:	4a27      	ldr	r2, [pc, #156]	@ (10002b2c <task::~task()+0xa0>)
10002a90:	f890 3040 	ldrb.w	r3, [r0, #64]	@ 0x40
10002a94:	4604      	mov	r4, r0
10002a96:	6002      	str	r2, [r0, #0]
10002a98:	b993      	cbnz	r3, 10002ac0 <task::~task()+0x34>
10002a9a:	6b60      	ldr	r0, [r4, #52]	@ 0x34
10002a9c:	b108      	cbz	r0, 10002aa2 <task::~task()+0x16>
10002a9e:	f001 f98e 	bl	10003dbe <operator delete[](void*)>
10002aa2:	2200      	movs	r2, #0
10002aa4:	6d63      	ldr	r3, [r4, #84]	@ 0x54
10002aa6:	6362      	str	r2, [r4, #52]	@ 0x34
10002aa8:	b123      	cbz	r3, 10002ab4 <task::~task()+0x28>
10002aaa:	f104 014c 	add.w	r1, r4, #76	@ 0x4c
10002aae:	2203      	movs	r2, #3
10002ab0:	4608      	mov	r0, r1
10002ab2:	4798      	blx	r3
10002ab4:	4620      	mov	r0, r4
10002ab6:	2160      	movs	r1, #96	@ 0x60
10002ab8:	f001 f97f 	bl	10003dba <operator delete(void*, unsigned int)>
10002abc:	4620      	mov	r0, r4
10002abe:	bd70      	pop	{r4, r5, r6, pc}
10002ac0:	f000 fa26 	bl	10002f10 <task::enterCritical()>
10002ac4:	f994 2014 	ldrsb.w	r2, [r4, #20]
10002ac8:	4b19      	ldr	r3, [pc, #100]	@ (10002b30 <task::~task()+0xa4>)
10002aca:	eb02 0142 	add.w	r1, r2, r2, lsl #1
10002ace:	eb03 0e81 	add.w	lr, r3, r1, lsl #2
10002ad2:	f8de 0008 	ldr.w	r0, [lr, #8]
10002ad6:	ea4f 0c42 	mov.w	ip, r2, lsl #1
10002ada:	2801      	cmp	r0, #1
10002adc:	ea4f 0181 	mov.w	r1, r1, lsl #2
10002ae0:	d01e      	beq.n	10002b20 <task::~task()+0x94>
10002ae2:	e9d4 5611 	ldrd	r5, r6, [r4, #68]	@ 0x44
10002ae6:	6475      	str	r5, [r6, #68]	@ 0x44
10002ae8:	6ca6      	ldr	r6, [r4, #72]	@ 0x48
10002aea:	64ae      	str	r6, [r5, #72]	@ 0x48
10002aec:	585d      	ldr	r5, [r3, r1]
10002aee:	42ac      	cmp	r4, r5
10002af0:	bf04      	itt	eq
10002af2:	6c65      	ldreq	r5, [r4, #68]	@ 0x44
10002af4:	505d      	streq	r5, [r3, r1]
10002af6:	eb0c 0102 	add.w	r1, ip, r2
10002afa:	eb03 0181 	add.w	r1, r3, r1, lsl #2
10002afe:	684d      	ldr	r5, [r1, #4]
10002b00:	42ac      	cmp	r4, r5
10002b02:	bf08      	it	eq
10002b04:	604e      	streq	r6, [r1, #4]
10002b06:	4494      	add	ip, r2
10002b08:	eb03 038c 	add.w	r3, r3, ip, lsl #2
10002b0c:	3801      	subs	r0, #1
10002b0e:	6098      	str	r0, [r3, #8]
10002b10:	2300      	movs	r3, #0
10002b12:	f884 3040 	strb.w	r3, [r4, #64]	@ 0x40
10002b16:	f000 fa01 	bl	10002f1c <task::leaveCritical()>
10002b1a:	f000 f9ef 	bl	10002efc <task::yield()>
10002b1e:	e7bc      	b.n	10002a9a <task::~task()+0xe>
10002b20:	2500      	movs	r5, #0
10002b22:	505d      	str	r5, [r3, r1]
10002b24:	f8ce 5004 	str.w	r5, [lr, #4]
10002b28:	e7ed      	b.n	10002b06 <task::~task()+0x7a>
10002b2a:	bf00      	nop
10002b2c:	10004784 	.word	0x10004784
10002b30:	20000360 	.word	0x20000360
10002b34:	00000000 	.word	0x00000000

10002b38 <task::task(char const*, unsigned short)>:
10002b38:	b570      	push	{r4, r5, r6, lr}
10002b3a:	ed9f 7b15 	vldr	d7, [pc, #84]	@ 10002b90 <task::task(char const*, unsigned short)+0x58>
10002b3e:	4604      	mov	r4, r0
10002b40:	2500      	movs	r5, #0
10002b42:	4b15      	ldr	r3, [pc, #84]	@ (10002b98 <task::task(char const*, unsigned short)+0x60>)
10002b44:	4616      	mov	r6, r2
10002b46:	f840 3b04 	str.w	r3, [r0], #4
10002b4a:	220f      	movs	r2, #15
10002b4c:	6065      	str	r5, [r4, #4]
10002b4e:	e9c0 5501 	strd	r5, r5, [r0, #4]
10002b52:	60c5      	str	r5, [r0, #12]
10002b54:	ed84 7b0a 	vstr	d7, [r4, #40]	@ 0x28
10002b58:	e9c4 5507 	strd	r5, r5, [r4, #28]
10002b5c:	e9c4 5514 	strd	r5, r5, [r4, #80]	@ 0x50
10002b60:	7525      	strb	r5, [r4, #20]
10002b62:	82e5      	strh	r5, [r4, #22]
10002b64:	64e5      	str	r5, [r4, #76]	@ 0x4c
10002b66:	65a5      	str	r5, [r4, #88]	@ 0x58
10002b68:	f001 fbcc 	bl	10004304 <strncpy>
10002b6c:	2302      	movs	r3, #2
10002b6e:	4630      	mov	r0, r6
10002b70:	7623      	strb	r3, [r4, #24]
10002b72:	6325      	str	r5, [r4, #48]	@ 0x30
10002b74:	8726      	strh	r6, [r4, #56]	@ 0x38
10002b76:	f001 f924 	bl	10003dc2 <operator new[](unsigned int)>
10002b7a:	e9c4 5511 	strd	r5, r5, [r4, #68]	@ 0x44
10002b7e:	6360      	str	r0, [r4, #52]	@ 0x34
10002b80:	63e5      	str	r5, [r4, #60]	@ 0x3c
10002b82:	f884 5040 	strb.w	r5, [r4, #64]	@ 0x40
10002b86:	4620      	mov	r0, r4
10002b88:	bd70      	pop	{r4, r5, r6, pc}
10002b8a:	bf00      	nop
10002b8c:	f3af 8000 	nop.w
	...
10002b98:	10004784 	.word	0x10004784

10002b9c <task::sign_up(core_t, unsigned short, bool)>:
10002b9c:	b570      	push	{r4, r5, r6, lr}
10002b9e:	460d      	mov	r5, r1
10002ba0:	4619      	mov	r1, r3
10002ba2:	1c6b      	adds	r3, r5, #1
10002ba4:	4604      	mov	r4, r0
10002ba6:	4616      	mov	r6, r2
10002ba8:	b082      	sub	sp, #8
10002baa:	d041      	beq.n	10002c30 <task::sign_up(core_t, unsigned short, bool)+0x94>
10002bac:	b268      	sxtb	r0, r5
10002bae:	8f23      	ldrh	r3, [r4, #56]	@ 0x38
10002bb0:	7520      	strb	r0, [r4, #20]
10002bb2:	b153      	cbz	r3, 10002bca <task::sign_up(core_t, unsigned short, bool)+0x2e>
10002bb4:	2000      	movs	r0, #0
10002bb6:	25a5      	movs	r5, #165	@ 0xa5
10002bb8:	6b63      	ldr	r3, [r4, #52]	@ 0x34
10002bba:	541d      	strb	r5, [r3, r0]
10002bbc:	f8b4 e038 	ldrh.w	lr, [r4, #56]	@ 0x38
10002bc0:	3001      	adds	r0, #1
10002bc2:	fa1f fc80 	uxth.w	ip, r0
10002bc6:	45e6      	cmp	lr, ip
10002bc8:	d8f6      	bhi.n	10002bb8 <task::sign_up(core_t, unsigned short, bool)+0x1c>
10002bca:	4620      	mov	r0, r4
10002bcc:	f000 f952 	bl	10002e74 <task::_setup_stack(bool)>
10002bd0:	2300      	movs	r3, #0
10002bd2:	2000      	movs	r0, #0
10002bd4:	2100      	movs	r1, #0
10002bd6:	e9c4 3307 	strd	r3, r3, [r4, #28]
10002bda:	e9c4 010a 	strd	r0, r1, [r4, #40]	@ 0x28
10002bde:	82e6      	strh	r6, [r4, #22]
10002be0:	7623      	strb	r3, [r4, #24]
10002be2:	6323      	str	r3, [r4, #48]	@ 0x30
10002be4:	f000 f994 	bl	10002f10 <task::enterCritical()>
10002be8:	f994 2014 	ldrsb.w	r2, [r4, #20]
10002bec:	4b13      	ldr	r3, [pc, #76]	@ (10002c3c <task::sign_up(core_t, unsigned short, bool)+0xa0>)
10002bee:	eb02 0142 	add.w	r1, r2, r2, lsl #1
10002bf2:	eb03 0681 	add.w	r6, r3, r1, lsl #2
10002bf6:	6875      	ldr	r5, [r6, #4]
10002bf8:	0050      	lsls	r0, r2, #1
10002bfa:	0089      	lsls	r1, r1, #2
10002bfc:	b19d      	cbz	r5, 10002c26 <task::sign_up(core_t, unsigned short, bool)+0x8a>
10002bfe:	5859      	ldr	r1, [r3, r1]
10002c00:	6074      	str	r4, [r6, #4]
10002c02:	e9c4 1511 	strd	r1, r5, [r4, #68]	@ 0x44
10002c06:	648c      	str	r4, [r1, #72]	@ 0x48
10002c08:	646c      	str	r4, [r5, #68]	@ 0x44
10002c0a:	2101      	movs	r1, #1
10002c0c:	4402      	add	r2, r0
10002c0e:	eb03 0382 	add.w	r3, r3, r2, lsl #2
10002c12:	689a      	ldr	r2, [r3, #8]
10002c14:	f884 1040 	strb.w	r1, [r4, #64]	@ 0x40
10002c18:	440a      	add	r2, r1
10002c1a:	609a      	str	r2, [r3, #8]
10002c1c:	b002      	add	sp, #8
10002c1e:	e8bd 4070 	ldmia.w	sp!, {r4, r5, r6, lr}
10002c22:	f000 b97b 	b.w	10002f1c <task::leaveCritical()>
10002c26:	e9c4 4411 	strd	r4, r4, [r4, #68]	@ 0x44
10002c2a:	505c      	str	r4, [r3, r1]
10002c2c:	6074      	str	r4, [r6, #4]
10002c2e:	e7ec      	b.n	10002c0a <task::sign_up(core_t, unsigned short, bool)+0x6e>
10002c30:	9101      	str	r1, [sp, #4]
10002c32:	f000 f95d 	bl	10002ef0 <task::get_core()>
10002c36:	9901      	ldr	r1, [sp, #4]
10002c38:	e7b9      	b.n	10002bae <task::sign_up(core_t, unsigned short, bool)+0x12>
10002c3a:	bf00      	nop
10002c3c:	20000360 	.word	0x20000360

10002c40 <task::sleep_ms(unsigned long)>:
10002c40:	b538      	push	{r3, r4, r5, lr}
10002c42:	4604      	mov	r4, r0
10002c44:	f000 f936 	bl	10002eb4 <task::millis()>
10002c48:	1824      	adds	r4, r4, r0
10002c4a:	f141 0500 	adc.w	r5, r1, #0
10002c4e:	f000 f947 	bl	10002ee0 <task::multitasking_running()>
10002c52:	b928      	cbnz	r0, 10002c60 <task::sleep_ms(unsigned long)+0x20>
10002c54:	f000 f92e 	bl	10002eb4 <task::millis()>
10002c58:	42a0      	cmp	r0, r4
10002c5a:	41a9      	sbcs	r1, r5
10002c5c:	d3fa      	bcc.n	10002c54 <task::sleep_ms(unsigned long)+0x14>
10002c5e:	bd38      	pop	{r3, r4, r5, pc}
10002c60:	f000 f946 	bl	10002ef0 <task::get_core()>
10002c64:	2201      	movs	r2, #1
10002c66:	4b05      	ldr	r3, [pc, #20]	@ (10002c7c <task::sleep_ms(unsigned long)+0x3c>)
10002c68:	f853 3020 	ldr.w	r3, [r3, r0, lsl #2]
10002c6c:	e9c3 450a 	strd	r4, r5, [r3, #40]	@ 0x28
10002c70:	761a      	strb	r2, [r3, #24]
10002c72:	e8bd 4038 	ldmia.w	sp!, {r3, r4, r5, lr}
10002c76:	f000 b941 	b.w	10002efc <task::yield()>
10002c7a:	bf00      	nop
10002c7c:	200004c4 	.word	0x200004c4

10002c80 <task::_run()>:
10002c80:	4604      	mov	r4, r0
10002c82:	b508      	push	{r3, lr}
10002c84:	6803      	ldr	r3, [r0, #0]
10002c86:	689b      	ldr	r3, [r3, #8]
10002c88:	4798      	blx	r3
10002c8a:	f894 3040 	ldrb.w	r3, [r4, #64]	@ 0x40
10002c8e:	b913      	cbnz	r3, 10002c96 <task::_run()+0x16>
10002c90:	2000      	movs	r0, #0
10002c92:	f001 fa5f 	bl	10004154 <exit>
10002c96:	f000 f93b 	bl	10002f10 <task::enterCritical()>
10002c9a:	220c      	movs	r2, #12
10002c9c:	f994 0014 	ldrsb.w	r0, [r4, #20]
10002ca0:	4b16      	ldr	r3, [pc, #88]	@ (10002cfc <task::_run()+0x7c>)
10002ca2:	fb00 f202 	mul.w	r2, r0, r2
10002ca6:	eb03 0c02 	add.w	ip, r3, r2
10002caa:	f8dc 1008 	ldr.w	r1, [ip, #8]
10002cae:	2901      	cmp	r1, #1
10002cb0:	d01e      	beq.n	10002cf0 <task::_run()+0x70>
10002cb2:	e9d4 5611 	ldrd	r5, r6, [r4, #68]	@ 0x44
10002cb6:	6475      	str	r5, [r6, #68]	@ 0x44
10002cb8:	6ca6      	ldr	r6, [r4, #72]	@ 0x48
10002cba:	64ae      	str	r6, [r5, #72]	@ 0x48
10002cbc:	589d      	ldr	r5, [r3, r2]
10002cbe:	42ac      	cmp	r4, r5
10002cc0:	bf04      	itt	eq
10002cc2:	6c65      	ldreq	r5, [r4, #68]	@ 0x44
10002cc4:	509d      	streq	r5, [r3, r2]
10002cc6:	220c      	movs	r2, #12
10002cc8:	fb02 3200 	mla	r2, r2, r0, r3
10002ccc:	6855      	ldr	r5, [r2, #4]
10002cce:	42ac      	cmp	r4, r5
10002cd0:	bf08      	it	eq
10002cd2:	6056      	streq	r6, [r2, #4]
10002cd4:	f04f 0c0c 	mov.w	ip, #12
10002cd8:	2200      	movs	r2, #0
10002cda:	fb0c 3300 	mla	r3, ip, r0, r3
10002cde:	3901      	subs	r1, #1
10002ce0:	f884 2040 	strb.w	r2, [r4, #64]	@ 0x40
10002ce4:	6099      	str	r1, [r3, #8]
10002ce6:	f000 f919 	bl	10002f1c <task::leaveCritical()>
10002cea:	f000 f907 	bl	10002efc <task::yield()>
10002cee:	e7cf      	b.n	10002c90 <task::_run()+0x10>
10002cf0:	2500      	movs	r5, #0
10002cf2:	509d      	str	r5, [r3, r2]
10002cf4:	f8cc 5004 	str.w	r5, [ip, #4]
10002cf8:	e7ec      	b.n	10002cd4 <task::_run()+0x54>
10002cfa:	bf00      	nop
10002cfc:	20000360 	.word	0x20000360

10002d00 <task::_scheduler()>:
10002d00:	e92d 4ff8 	stmdb	sp!, {r3, r4, r5, r6, r7, r8, r9, sl, fp, lr}
10002d04:	f000 f8f4 	bl	10002ef0 <task::get_core()>
10002d08:	4b28      	ldr	r3, [pc, #160]	@ (10002dac <task::_scheduler()+0xac>)
10002d0a:	eb00 0240 	add.w	r2, r0, r0, lsl #1
10002d0e:	eb03 0a82 	add.w	sl, r3, r2, lsl #2
10002d12:	f8df 90a0 	ldr.w	r9, [pc, #160]	@ 10002db4 <task::_scheduler()+0xb4>
10002d16:	f8da 3008 	ldr.w	r3, [sl, #8]
10002d1a:	f859 2020 	ldr.w	r2, [r9, r0, lsl #2]
10002d1e:	2b00      	cmp	r3, #0
10002d20:	4680      	mov	r8, r0
10002d22:	6c54      	ldr	r4, [r2, #68]	@ 0x44
10002d24:	dd22      	ble.n	10002d6c <task::_scheduler()+0x6c>
10002d26:	2500      	movs	r5, #0
10002d28:	462f      	mov	r7, r5
10002d2a:	46ab      	mov	fp, r5
10002d2c:	7e23      	ldrb	r3, [r4, #24]
10002d2e:	8ae6      	ldrh	r6, [r4, #22]
10002d30:	2b01      	cmp	r3, #1
10002d32:	d024      	beq.n	10002d7e <task::_scheduler()+0x7e>
10002d34:	2b03      	cmp	r3, #3
10002d36:	d00c      	beq.n	10002d52 <task::_scheduler()+0x52>
10002d38:	b19b      	cbz	r3, 10002d62 <task::_scheduler()+0x62>
10002d3a:	f8da 3008 	ldr.w	r3, [sl, #8]
10002d3e:	3501      	adds	r5, #1
10002d40:	42ab      	cmp	r3, r5
10002d42:	6c64      	ldr	r4, [r4, #68]	@ 0x44
10002d44:	dcf2      	bgt.n	10002d2c <task::_scheduler()+0x2c>
10002d46:	f859 3028 	ldr.w	r3, [r9, r8, lsl #2]
10002d4a:	455b      	cmp	r3, fp
10002d4c:	d110      	bne.n	10002d70 <task::_scheduler()+0x70>
10002d4e:	e8bd 8ff8 	ldmia.w	sp!, {r3, r4, r5, r6, r7, r8, r9, sl, fp, pc}
10002d52:	6b20      	ldr	r0, [r4, #48]	@ 0x30
10002d54:	6803      	ldr	r3, [r0, #0]
10002d56:	689b      	ldr	r3, [r3, #8]
10002d58:	4798      	blx	r3
10002d5a:	b1c8      	cbz	r0, 10002d90 <task::_scheduler()+0x90>
10002d5c:	7e23      	ldrb	r3, [r4, #24]
10002d5e:	2b00      	cmp	r3, #0
10002d60:	d1eb      	bne.n	10002d3a <task::_scheduler()+0x3a>
10002d62:	42be      	cmp	r6, r7
10002d64:	bf84      	itt	hi
10002d66:	46a3      	movhi	fp, r4
10002d68:	4637      	movhi	r7, r6
10002d6a:	e7e6      	b.n	10002d3a <task::_scheduler()+0x3a>
10002d6c:	f04f 0b00 	mov.w	fp, #0
10002d70:	4b0f      	ldr	r3, [pc, #60]	@ (10002db0 <task::_scheduler()+0xb0>)
10002d72:	f843 b028 	str.w	fp, [r3, r8, lsl #2]
10002d76:	e8bd 4ff8 	ldmia.w	sp!, {r3, r4, r5, r6, r7, r8, r9, sl, fp, lr}
10002d7a:	f000 b891 	b.w	10002ea0 <task::_context_switch()>
10002d7e:	f000 f899 	bl	10002eb4 <task::millis()>
10002d82:	e9d4 230a 	ldrd	r2, r3, [r4, #40]	@ 0x28
10002d86:	4290      	cmp	r0, r2
10002d88:	4199      	sbcs	r1, r3
10002d8a:	d207      	bcs.n	10002d9c <task::_scheduler()+0x9c>
10002d8c:	7e23      	ldrb	r3, [r4, #24]
10002d8e:	e7d1      	b.n	10002d34 <task::_scheduler()+0x34>
10002d90:	42be      	cmp	r6, r7
10002d92:	bf84      	itt	hi
10002d94:	46a3      	movhi	fp, r4
10002d96:	4637      	movhi	r7, r6
10002d98:	7620      	strb	r0, [r4, #24]
10002d9a:	e7ce      	b.n	10002d3a <task::_scheduler()+0x3a>
10002d9c:	2300      	movs	r3, #0
10002d9e:	42be      	cmp	r6, r7
10002da0:	bf84      	itt	hi
10002da2:	46a3      	movhi	fp, r4
10002da4:	4637      	movhi	r7, r6
10002da6:	7623      	strb	r3, [r4, #24]
10002da8:	e7c7      	b.n	10002d3a <task::_scheduler()+0x3a>
10002daa:	bf00      	nop
10002dac:	20000360 	.word	0x20000360
10002db0:	200004cc 	.word	0x200004cc
10002db4:	200004c4 	.word	0x200004c4

10002db8 <task::_tick_handler()>:
10002db8:	b510      	push	{r4, lr}
10002dba:	f000 f899 	bl	10002ef0 <task::get_core()>
10002dbe:	490d      	ldr	r1, [pc, #52]	@ (10002df4 <task::_tick_handler()+0x3c>)
10002dc0:	4a0d      	ldr	r2, [pc, #52]	@ (10002df8 <task::_tick_handler()+0x40>)
10002dc2:	f851 3030 	ldr.w	r3, [r1, r0, lsl #3]
10002dc6:	eb01 0cc0 	add.w	ip, r1, r0, lsl #3
10002dca:	f852 4020 	ldr.w	r4, [r2, r0, lsl #2]
10002dce:	f8dc 2004 	ldr.w	r2, [ip, #4]
10002dd2:	3301      	adds	r3, #1
10002dd4:	f142 0200 	adc.w	r2, r2, #0
10002dd8:	f841 3030 	str.w	r3, [r1, r0, lsl #3]
10002ddc:	f8cc 2004 	str.w	r2, [ip, #4]
10002de0:	b134      	cbz	r4, 10002df0 <task::_tick_handler()+0x38>
10002de2:	69e3      	ldr	r3, [r4, #28]
10002de4:	3301      	adds	r3, #1
10002de6:	61e3      	str	r3, [r4, #28]
10002de8:	e8bd 4010 	ldmia.w	sp!, {r4, lr}
10002dec:	f7ff bf88 	b.w	10002d00 <task::_scheduler()>
10002df0:	bd10      	pop	{r4, pc}
10002df2:	bf00      	nop
10002df4:	20000378 	.word	0x20000378
10002df8:	200004c4 	.word	0x200004c4

10002dfc <_GLOBAL__sub_I__ZN4task9_up_ticksE>:
10002dfc:	2200      	movs	r2, #0
10002dfe:	2000      	movs	r0, #0
10002e00:	2100      	movs	r1, #0
10002e02:	4b04      	ldr	r3, [pc, #16]	@ (10002e14 <_GLOBAL__sub_I__ZN4task9_up_ticksE+0x18>)
10002e04:	e9c3 0100 	strd	r0, r1, [r3]
10002e08:	e9c3 2202 	strd	r2, r2, [r3, #8]
10002e0c:	e9c3 2204 	strd	r2, r2, [r3, #16]
10002e10:	4770      	bx	lr
10002e12:	bf00      	nop
10002e14:	20000360 	.word	0x20000360

10002e18 <__yahal_bad_function_call>:
10002e18:	e7fe      	b.n	10002e18 <__yahal_bad_function_call>
10002e1a:	bf00      	nop

10002e1c <task_idle::run()>:
10002e1c:	bf20      	wfe
10002e1e:	e7fd      	b.n	10002e1c <task_idle::run()>

10002e20 <task_idle::~task_idle()>:
10002e20:	b510      	push	{r4, lr}
10002e22:	4604      	mov	r4, r0
10002e24:	4b02      	ldr	r3, [pc, #8]	@ (10002e30 <task_idle::~task_idle()+0x10>)
10002e26:	6003      	str	r3, [r0, #0]
10002e28:	f7ff fde0 	bl	100029ec <task::~task()>
10002e2c:	4620      	mov	r0, r4
10002e2e:	bd10      	pop	{r4, pc}
10002e30:	10004798 	.word	0x10004798

10002e34 <__tcf_0>:
10002e34:	b510      	push	{r4, lr}
10002e36:	4806      	ldr	r0, [pc, #24]	@ (10002e50 <__tcf_0+0x1c>)
10002e38:	4c06      	ldr	r4, [pc, #24]	@ (10002e54 <__tcf_0+0x20>)
10002e3a:	f840 4f60 	str.w	r4, [r0, #96]!
10002e3e:	f7ff fdd5 	bl	100029ec <task::~task()>
10002e42:	4803      	ldr	r0, [pc, #12]	@ (10002e50 <__tcf_0+0x1c>)
10002e44:	6004      	str	r4, [r0, #0]
10002e46:	e8bd 4010 	ldmia.w	sp!, {r4, lr}
10002e4a:	f7ff bdcf 	b.w	100029ec <task::~task()>
10002e4e:	bf00      	nop
10002e50:	20000388 	.word	0x20000388
10002e54:	10004798 	.word	0x10004798

10002e58 <task_idle::~task_idle()>:
10002e58:	b510      	push	{r4, lr}
10002e5a:	4604      	mov	r4, r0
10002e5c:	4b04      	ldr	r3, [pc, #16]	@ (10002e70 <task_idle::~task_idle()+0x18>)
10002e5e:	6003      	str	r3, [r0, #0]
10002e60:	f7ff fdc4 	bl	100029ec <task::~task()>
10002e64:	4620      	mov	r0, r4
10002e66:	2160      	movs	r1, #96	@ 0x60
10002e68:	f000 ffa7 	bl	10003dba <operator delete(void*, unsigned int)>
10002e6c:	4620      	mov	r0, r4
10002e6e:	bd10      	pop	{r4, pc}
10002e70:	10004798 	.word	0x10004798

10002e74 <task::_setup_stack(bool)>:
10002e74:	b4f0      	push	{r4, r5, r6, r7}
10002e76:	f04f 7780 	mov.w	r7, #16777216	@ 0x1000000
10002e7a:	f06f 0502 	mvn.w	r5, #2
10002e7e:	8f02      	ldrh	r2, [r0, #56]	@ 0x38
10002e80:	6b44      	ldr	r4, [r0, #52]	@ 0x34
10002e82:	4e06      	ldr	r6, [pc, #24]	@ (10002e9c <task::_setup_stack(bool)+0x28>)
10002e84:	3a48      	subs	r2, #72	@ 0x48
10002e86:	18a3      	adds	r3, r4, r2
10002e88:	63c3      	str	r3, [r0, #60]	@ 0x3c
10002e8a:	e9c3 6710 	strd	r6, r7, [r3, #64]	@ 0x40
10002e8e:	f1c1 0103 	rsb	r1, r1, #3
10002e92:	6298      	str	r0, [r3, #40]	@ 0x28
10002e94:	50a5      	str	r5, [r4, r2]
10002e96:	6059      	str	r1, [r3, #4]
10002e98:	bcf0      	pop	{r4, r5, r6, r7}
10002e9a:	4770      	bx	lr
10002e9c:	10002c81 	.word	0x10002c81

10002ea0 <task::_context_switch()>:
10002ea0:	f04f 22e0 	mov.w	r2, #3758153728	@ 0xe000e000
10002ea4:	f8d2 3d04 	ldr.w	r3, [r2, #3332]	@ 0xd04
10002ea8:	f043 5380 	orr.w	r3, r3, #268435456	@ 0x10000000
10002eac:	f8c2 3d04 	str.w	r3, [r2, #3332]	@ 0xd04
10002eb0:	4770      	bx	lr
10002eb2:	bf00      	nop

10002eb4 <task::millis()>:
10002eb4:	b508      	push	{r3, lr}
10002eb6:	4b08      	ldr	r3, [pc, #32]	@ (10002ed8 <task::millis()+0x24>)
10002eb8:	6899      	ldr	r1, [r3, #8]
10002eba:	68d8      	ldr	r0, [r3, #12]
10002ebc:	689a      	ldr	r2, [r3, #8]
10002ebe:	4291      	cmp	r1, r2
10002ec0:	d1fa      	bne.n	10002eb8 <task::millis()+0x4>
10002ec2:	4a06      	ldr	r2, [pc, #24]	@ (10002edc <task::millis()+0x28>)
10002ec4:	2300      	movs	r3, #0
10002ec6:	6812      	ldr	r2, [r2, #0]
10002ec8:	f001 fb70 	bl	100045ac <__aeabi_uldivmod>
10002ecc:	f44f 727a 	mov.w	r2, #1000	@ 0x3e8
10002ed0:	2300      	movs	r3, #0
10002ed2:	f001 fb6b 	bl	100045ac <__aeabi_uldivmod>
10002ed6:	bd08      	pop	{r3, pc}
10002ed8:	400b0000 	.word	0x400b0000
10002edc:	20000640 	.word	0x20000640

10002ee0 <task::multitasking_running()>:
10002ee0:	f04f 4350 	mov.w	r3, #3489660928	@ 0xd0000000
10002ee4:	4a01      	ldr	r2, [pc, #4]	@ (10002eec <task::multitasking_running()+0xc>)
10002ee6:	681b      	ldr	r3, [r3, #0]
10002ee8:	5cd0      	ldrb	r0, [r2, r3]
10002eea:	4770      	bx	lr
10002eec:	20000620 	.word	0x20000620

10002ef0 <task::get_core()>:
10002ef0:	f04f 4350 	mov.w	r3, #3489660928	@ 0xd0000000
10002ef4:	6818      	ldr	r0, [r3, #0]
10002ef6:	b240      	sxtb	r0, r0
10002ef8:	4770      	bx	lr
10002efa:	bf00      	nop

10002efc <task::yield()>:
10002efc:	f04f 4350 	mov.w	r3, #3489660928	@ 0xd0000000
10002f00:	4a02      	ldr	r2, [pc, #8]	@ (10002f0c <task::yield()+0x10>)
10002f02:	681b      	ldr	r3, [r3, #0]
10002f04:	5cd3      	ldrb	r3, [r2, r3]
10002f06:	b103      	cbz	r3, 10002f0a <task::yield()+0xe>
10002f08:	df01      	svc	1
10002f0a:	4770      	bx	lr
10002f0c:	20000620 	.word	0x20000620

10002f10 <task::enterCritical()>:
10002f10:	f3bf 8f4f 	dsb	sy
10002f14:	f3bf 8f6f 	isb	sy
10002f18:	4770      	bx	lr
10002f1a:	bf00      	nop

10002f1c <task::leaveCritical()>:
10002f1c:	f3bf 8f6f 	isb	sy
10002f20:	4770      	bx	lr
10002f22:	bf00      	nop

10002f24 <SysTick_Handler>:
10002f24:	f7ff bf48 	b.w	10002db8 <task::_tick_handler()>

10002f28 <switch_context>:
10002f28:	f04f 4150 	mov.w	r1, #3489660928	@ 0xd0000000
10002f2c:	b410      	push	{r4}
10002f2e:	680b      	ldr	r3, [r1, #0]
10002f30:	4a09      	ldr	r2, [pc, #36]	@ (10002f58 <switch_context+0x30>)
10002f32:	b25b      	sxtb	r3, r3
10002f34:	f852 3023 	ldr.w	r3, [r2, r3, lsl #2]
10002f38:	4c08      	ldr	r4, [pc, #32]	@ (10002f5c <switch_context+0x34>)
10002f3a:	63d8      	str	r0, [r3, #60]	@ 0x3c
10002f3c:	680b      	ldr	r3, [r1, #0]
10002f3e:	b25b      	sxtb	r3, r3
10002f40:	f854 0023 	ldr.w	r0, [r4, r3, lsl #2]
10002f44:	f842 0023 	str.w	r0, [r2, r3, lsl #2]
10002f48:	680b      	ldr	r3, [r1, #0]
10002f4a:	f85d 4b04 	ldr.w	r4, [sp], #4
10002f4e:	b25b      	sxtb	r3, r3
10002f50:	f852 3023 	ldr.w	r3, [r2, r3, lsl #2]
10002f54:	6bd8      	ldr	r0, [r3, #60]	@ 0x3c
10002f56:	4770      	bx	lr
10002f58:	200004c4 	.word	0x200004c4
10002f5c:	200004cc 	.word	0x200004cc

10002f60 <PendSV_Handler>:
10002f60:	f3ef 8009 	mrs	r0, PSP
10002f64:	f01e 0f10 	tst.w	lr, #16
10002f68:	bf08      	it	eq
10002f6a:	ed20 8a10 	vstmdbeq	r0!, {s16-s31}
10002f6e:	4672      	mov	r2, lr
10002f70:	f3ef 8314 	mrs	r3, CONTROL
10002f74:	e920 0ffc 	stmdb	r0!, {r2, r3, r4, r5, r6, r7, r8, r9, sl, fp}
10002f78:	f7ff ffd6 	bl	10002f28 <switch_context>
10002f7c:	e8b0 0ffc 	ldmia.w	r0!, {r2, r3, r4, r5, r6, r7, r8, r9, sl, fp}
10002f80:	4696      	mov	lr, r2
10002f82:	f383 8814 	msr	CONTROL, r3
10002f86:	f3bf 8f6f 	isb	sy
10002f8a:	f01e 0f10 	tst.w	lr, #16
10002f8e:	bf08      	it	eq
10002f90:	ecb0 8a10 	vldmiaeq	r0!, {s16-s31}
10002f94:	f380 8809 	msr	PSP, r0
10002f98:	4770      	bx	lr
10002f9a:	bf00      	nop

10002f9c <SVC_Handler>:
10002f9c:	f01e 0f04 	tst.w	lr, #4
10002fa0:	bf0c      	ite	eq
10002fa2:	f3ef 8008 	mrseq	r0, MSP
10002fa6:	f3ef 8009 	mrsne	r0, PSP
10002faa:	f01e 0f20 	tst.w	lr, #32
10002fae:	bf08      	it	eq
10002fb0:	3028      	addeq	r0, #40	@ 0x28
10002fb2:	4671      	mov	r1, lr
10002fb4:	f000 f802 	bl	10002fbc <SVC_Handler_C>
10002fb8:	4700      	bx	r0
10002fba:	bf00      	nop

10002fbc <SVC_Handler_C>:
10002fbc:	e92d 41f0 	stmdb	sp!, {r4, r5, r6, r7, r8, lr}
10002fc0:	6983      	ldr	r3, [r0, #24]
10002fc2:	f813 5c02 	ldrb.w	r5, [r3, #-2]
10002fc6:	b145      	cbz	r5, 10002fda <SVC_Handler_C+0x1e>
10002fc8:	2d01      	cmp	r5, #1
10002fca:	460c      	mov	r4, r1
10002fcc:	d002      	beq.n	10002fd4 <SVC_Handler_C+0x18>
10002fce:	4620      	mov	r0, r4
10002fd0:	e8bd 81f0 	ldmia.w	sp!, {r4, r5, r6, r7, r8, pc}
10002fd4:	f7ff fe94 	bl	10002d00 <task::_scheduler()>
10002fd8:	e7f9      	b.n	10002fce <SVC_Handler_C+0x12>
10002fda:	f04f 4650 	mov.w	r6, #3489660928	@ 0xd0000000
10002fde:	f04f 24e0 	mov.w	r4, #3758153728	@ 0xe000e000
10002fe2:	2201      	movs	r2, #1
10002fe4:	f8d6 c000 	ldr.w	ip, [r6]
10002fe8:	4f27      	ldr	r7, [pc, #156]	@ (10003088 <SVC_Handler_C+0xcc>)
10002fea:	4828      	ldr	r0, [pc, #160]	@ (1000308c <SVC_Handler_C+0xd0>)
10002fec:	f807 200c 	strb.w	r2, [r7, ip]
10002ff0:	6125      	str	r5, [r4, #16]
10002ff2:	6837      	ldr	r7, [r6, #0]
10002ff4:	462b      	mov	r3, r5
10002ff6:	eb07 0747 	add.w	r7, r7, r7, lsl #1
10002ffa:	eb00 1047 	add.w	r0, r0, r7, lsl #5
10002ffe:	f04f 31ff 	mov.w	r1, #4294967295	@ 0xffffffff
10003002:	f7ff fdcb 	bl	10002b9c <task::sign_up(core_t, unsigned short, bool)>
10003006:	f04f 0cf0 	mov.w	ip, #240	@ 0xf0
1000300a:	6833      	ldr	r3, [r6, #0]
1000300c:	4f20      	ldr	r7, [pc, #128]	@ (10003090 <SVC_Handler_C+0xd4>)
1000300e:	b25b      	sxtb	r3, r3
10003010:	eb03 0843 	add.w	r8, r3, r3, lsl #1
10003014:	f857 7028 	ldr.w	r7, [r7, r8, lsl #2]
10003018:	4a1e      	ldr	r2, [pc, #120]	@ (10003094 <SVC_Handler_C+0xd8>)
1000301a:	481f      	ldr	r0, [pc, #124]	@ (10003098 <SVC_Handler_C+0xdc>)
1000301c:	f8df e080 	ldr.w	lr, [pc, #128]	@ 100030a0 <SVC_Handler_C+0xe4>
10003020:	f842 7023 	str.w	r7, [r2, r3, lsl #2]
10003024:	f880 c022 	strb.w	ip, [r0, #34]	@ 0x22
10003028:	f880 c023 	strb.w	ip, [r0, #35]	@ 0x23
1000302c:	f8de 3000 	ldr.w	r3, [lr]
10003030:	491a      	ldr	r1, [pc, #104]	@ (1000309c <SVC_Handler_C+0xe0>)
10003032:	fba1 1303 	umull	r1, r3, r1, r3
10003036:	099b      	lsrs	r3, r3, #6
10003038:	3b01      	subs	r3, #1
1000303a:	6163      	str	r3, [r4, #20]
1000303c:	61a5      	str	r5, [r4, #24]
1000303e:	6923      	ldr	r3, [r4, #16]
10003040:	f023 0304 	bic.w	r3, r3, #4
10003044:	6123      	str	r3, [r4, #16]
10003046:	6923      	ldr	r3, [r4, #16]
10003048:	f043 0302 	orr.w	r3, r3, #2
1000304c:	6123      	str	r3, [r4, #16]
1000304e:	6923      	ldr	r3, [r4, #16]
10003050:	f043 0301 	orr.w	r3, r3, #1
10003054:	6123      	str	r3, [r4, #16]
10003056:	6833      	ldr	r3, [r6, #0]
10003058:	b25b      	sxtb	r3, r3
1000305a:	f852 3023 	ldr.w	r3, [r2, r3, lsl #2]
1000305e:	6bdb      	ldr	r3, [r3, #60]	@ 0x3c
10003060:	3328      	adds	r3, #40	@ 0x28
10003062:	f383 8809 	msr	PSP, r3
10003066:	6833      	ldr	r3, [r6, #0]
10003068:	b25b      	sxtb	r3, r3
1000306a:	f852 3023 	ldr.w	r3, [r2, r3, lsl #2]
1000306e:	6bdb      	ldr	r3, [r3, #60]	@ 0x3c
10003070:	685b      	ldr	r3, [r3, #4]
10003072:	f383 8814 	msr	CONTROL, r3
10003076:	f3bf 8f6f 	isb	sy
1000307a:	f3bf 8f6f 	isb	sy
1000307e:	f06f 0002 	mvn.w	r0, #2
10003082:	e8bd 81f0 	ldmia.w	sp!, {r4, r5, r6, r7, r8, pc}
10003086:	bf00      	nop
10003088:	20000620 	.word	0x20000620
1000308c:	20000388 	.word	0x20000388
10003090:	20000360 	.word	0x20000360
10003094:	200004c4 	.word	0x200004c4
10003098:	e000ed00 	.word	0xe000ed00
1000309c:	10624dd3 	.word	0x10624dd3
100030a0:	2000063c 	.word	0x2000063c

100030a4 <_GLOBAL__sub_I_multitasking_on_core>:
100030a4:	b510      	push	{r4, lr}
100030a6:	22c8      	movs	r2, #200	@ 0xc8
100030a8:	490a      	ldr	r1, [pc, #40]	@ (100030d4 <_GLOBAL__sub_I_multitasking_on_core+0x30>)
100030aa:	480b      	ldr	r0, [pc, #44]	@ (100030d8 <_GLOBAL__sub_I_multitasking_on_core+0x34>)
100030ac:	f7ff fd44 	bl	10002b38 <task::task(char const*, unsigned short)>
100030b0:	4c0a      	ldr	r4, [pc, #40]	@ (100030dc <_GLOBAL__sub_I_multitasking_on_core+0x38>)
100030b2:	4809      	ldr	r0, [pc, #36]	@ (100030d8 <_GLOBAL__sub_I_multitasking_on_core+0x34>)
100030b4:	22c8      	movs	r2, #200	@ 0xc8
100030b6:	4907      	ldr	r1, [pc, #28]	@ (100030d4 <_GLOBAL__sub_I_multitasking_on_core+0x30>)
100030b8:	f840 4b60 	str.w	r4, [r0], #96
100030bc:	f7ff fd3c 	bl	10002b38 <task::task(char const*, unsigned short)>
100030c0:	4b05      	ldr	r3, [pc, #20]	@ (100030d8 <_GLOBAL__sub_I_multitasking_on_core+0x34>)
100030c2:	2000      	movs	r0, #0
100030c4:	661c      	str	r4, [r3, #96]	@ 0x60
100030c6:	4a06      	ldr	r2, [pc, #24]	@ (100030e0 <_GLOBAL__sub_I_multitasking_on_core+0x3c>)
100030c8:	4906      	ldr	r1, [pc, #24]	@ (100030e4 <_GLOBAL__sub_I_multitasking_on_core+0x40>)
100030ca:	e8bd 4010 	ldmia.w	sp!, {r4, lr}
100030ce:	f000 be6f 	b.w	10003db0 <__aeabi_atexit>
100030d2:	bf00      	nop
100030d4:	10004694 	.word	0x10004694
100030d8:	20000388 	.word	0x20000388
100030dc:	10004798 	.word	0x10004798
100030e0:	20000000 	.word	0x20000000
100030e4:	10002e35 	.word	0x10002e35

100030e8 <ADC_IRQ_FIFO_Handler>:
100030e8:	e7fe      	b.n	100030e8 <ADC_IRQ_FIFO_Handler>
100030ea:	bf00      	nop

100030ec <Reset_Handler>:
100030ec:	b510      	push	{r4, lr}
100030ee:	f7ff fb53 	bl	10002798 <SystemInit>
100030f2:	4c1d      	ldr	r4, [pc, #116]	@ (10003168 <Reset_Handler+0x7c>)
100030f4:	4a1d      	ldr	r2, [pc, #116]	@ (1000316c <Reset_Handler+0x80>)
100030f6:	42a2      	cmp	r2, r4
100030f8:	d214      	bcs.n	10003124 <Reset_Handler+0x38>
100030fa:	320c      	adds	r2, #12
100030fc:	f852 3c04 	ldr.w	r3, [r2, #-4]
10003100:	4694      	mov	ip, r2
10003102:	b15b      	cbz	r3, 1000311c <Reset_Handler+0x30>
10003104:	2300      	movs	r3, #0
10003106:	e952 0103 	ldrd	r0, r1, [r2, #-12]
1000310a:	f850 0023 	ldr.w	r0, [r0, r3, lsl #2]
1000310e:	f841 0023 	str.w	r0, [r1, r3, lsl #2]
10003112:	f852 1c04 	ldr.w	r1, [r2, #-4]
10003116:	3301      	adds	r3, #1
10003118:	428b      	cmp	r3, r1
1000311a:	d3f4      	bcc.n	10003106 <Reset_Handler+0x1a>
1000311c:	45a4      	cmp	ip, r4
1000311e:	f102 020c 	add.w	r2, r2, #12
10003122:	d3eb      	bcc.n	100030fc <Reset_Handler+0x10>
10003124:	4a12      	ldr	r2, [pc, #72]	@ (10003170 <Reset_Handler+0x84>)
10003126:	4b13      	ldr	r3, [pc, #76]	@ (10003174 <Reset_Handler+0x88>)
10003128:	429a      	cmp	r2, r3
1000312a:	d21a      	bcs.n	10003162 <Reset_Handler+0x76>
1000312c:	2000      	movs	r0, #0
1000312e:	f103 3cff 	add.w	ip, r3, #4294967295	@ 0xffffffff
10003132:	ebac 0c02 	sub.w	ip, ip, r2
10003136:	f102 0310 	add.w	r3, r2, #16
1000313a:	f02c 0c07 	bic.w	ip, ip, #7
1000313e:	3208      	adds	r2, #8
10003140:	449c      	add	ip, r3
10003142:	f852 3c04 	ldr.w	r3, [r2, #-4]
10003146:	b14b      	cbz	r3, 1000315c <Reset_Handler+0x70>
10003148:	2300      	movs	r3, #0
1000314a:	f852 1c08 	ldr.w	r1, [r2, #-8]
1000314e:	f841 0023 	str.w	r0, [r1, r3, lsl #2]
10003152:	f852 1c04 	ldr.w	r1, [r2, #-4]
10003156:	3301      	adds	r3, #1
10003158:	428b      	cmp	r3, r1
1000315a:	d3f6      	bcc.n	1000314a <Reset_Handler+0x5e>
1000315c:	3208      	adds	r2, #8
1000315e:	4594      	cmp	ip, r2
10003160:	d1ef      	bne.n	10003142 <Reset_Handler+0x56>
10003162:	f001 f9e9 	bl	10004538 <_mainCRTStartup>
10003166:	bf00      	nop
10003168:	10005bcc 	.word	0x10005bcc
1000316c:	10005bb4 	.word	0x10005bb4
10003170:	10005bcc 	.word	0x10005bcc
10003174:	10005bdc 	.word	0x10005bdc

10003178 <_close>:
10003178:	2000      	movs	r0, #0
1000317a:	4770      	bx	lr

1000317c <uGUI::DrawCircle(short, short, short, unsigned long) [clone .part.0]>:
1000317c:	e92d 4ff0 	stmdb	sp!, {r4, r5, r6, r7, r8, r9, sl, fp, lr}
10003180:	f04f 0a00 	mov.w	sl, #0
10003184:	b087      	sub	sp, #28
10003186:	b289      	uxth	r1, r1
10003188:	9101      	str	r1, [sp, #4]
1000318a:	b291      	uxth	r1, r2
1000318c:	461a      	mov	r2, r3
1000318e:	4605      	mov	r5, r0
10003190:	9305      	str	r3, [sp, #20]
10003192:	005b      	lsls	r3, r3, #1
10003194:	f1c3 0301 	rsb	r3, r3, #1
10003198:	e9cd 1a02 	strd	r1, sl, [sp, #8]
1000319c:	b21b      	sxth	r3, r3
1000319e:	9e10      	ldr	r6, [sp, #64]	@ 0x40
100031a0:	9304      	str	r3, [sp, #16]
100031a2:	fa1f f882 	uxth.w	r8, r2
100031a6:	6828      	ldr	r0, [r5, #0]
100031a8:	9a01      	ldr	r2, [sp, #4]
100031aa:	9902      	ldr	r1, [sp, #8]
100031ac:	fa1f f48a 	uxth.w	r4, sl
100031b0:	6803      	ldr	r3, [r0, #0]
100031b2:	eb01 0904 	add.w	r9, r1, r4
100031b6:	eba2 0b08 	sub.w	fp, r2, r8
100031ba:	fa1f fb8b 	uxth.w	fp, fp
100031be:	fa1f f989 	uxth.w	r9, r9
100031c2:	464a      	mov	r2, r9
100031c4:	4659      	mov	r1, fp
100031c6:	689f      	ldr	r7, [r3, #8]
100031c8:	4633      	mov	r3, r6
100031ca:	47b8      	blx	r7
100031cc:	6828      	ldr	r0, [r5, #0]
100031ce:	9902      	ldr	r1, [sp, #8]
100031d0:	6803      	ldr	r3, [r0, #0]
100031d2:	1b0f      	subs	r7, r1, r4
100031d4:	b2bf      	uxth	r7, r7
100031d6:	4659      	mov	r1, fp
100031d8:	463a      	mov	r2, r7
100031da:	f8d3 b008 	ldr.w	fp, [r3, #8]
100031de:	4633      	mov	r3, r6
100031e0:	47d8      	blx	fp
100031e2:	6828      	ldr	r0, [r5, #0]
100031e4:	9a01      	ldr	r2, [sp, #4]
100031e6:	6803      	ldr	r3, [r0, #0]
100031e8:	eb08 0b02 	add.w	fp, r8, r2
100031ec:	fa1f fb8b 	uxth.w	fp, fp
100031f0:	464a      	mov	r2, r9
100031f2:	4659      	mov	r1, fp
100031f4:	f8d3 9008 	ldr.w	r9, [r3, #8]
100031f8:	4633      	mov	r3, r6
100031fa:	47c8      	blx	r9
100031fc:	6828      	ldr	r0, [r5, #0]
100031fe:	463a      	mov	r2, r7
10003200:	6803      	ldr	r3, [r0, #0]
10003202:	4659      	mov	r1, fp
10003204:	689f      	ldr	r7, [r3, #8]
10003206:	4633      	mov	r3, r6
10003208:	47b8      	blx	r7
1000320a:	6828      	ldr	r0, [r5, #0]
1000320c:	9a01      	ldr	r2, [sp, #4]
1000320e:	9902      	ldr	r1, [sp, #8]
10003210:	6803      	ldr	r3, [r0, #0]
10003212:	eba2 0b04 	sub.w	fp, r2, r4
10003216:	eb08 0701 	add.w	r7, r8, r1
1000321a:	fa1f fb8b 	uxth.w	fp, fp
1000321e:	b2bf      	uxth	r7, r7
10003220:	463a      	mov	r2, r7
10003222:	4659      	mov	r1, fp
10003224:	f8d3 9008 	ldr.w	r9, [r3, #8]
10003228:	4633      	mov	r3, r6
1000322a:	47c8      	blx	r9
1000322c:	6828      	ldr	r0, [r5, #0]
1000322e:	9902      	ldr	r1, [sp, #8]
10003230:	6803      	ldr	r3, [r0, #0]
10003232:	eba1 0908 	sub.w	r9, r1, r8
10003236:	fa1f f989 	uxth.w	r9, r9
1000323a:	4659      	mov	r1, fp
1000323c:	464a      	mov	r2, r9
1000323e:	f8d3 b008 	ldr.w	fp, [r3, #8]
10003242:	4633      	mov	r3, r6
10003244:	47d8      	blx	fp
10003246:	6828      	ldr	r0, [r5, #0]
10003248:	9a01      	ldr	r2, [sp, #4]
1000324a:	6803      	ldr	r3, [r0, #0]
1000324c:	eb02 0b04 	add.w	fp, r2, r4
10003250:	fa1f fb8b 	uxth.w	fp, fp
10003254:	463a      	mov	r2, r7
10003256:	4659      	mov	r1, fp
10003258:	689f      	ldr	r7, [r3, #8]
1000325a:	4633      	mov	r3, r6
1000325c:	47b8      	blx	r7
1000325e:	6828      	ldr	r0, [r5, #0]
10003260:	464a      	mov	r2, r9
10003262:	6803      	ldr	r3, [r0, #0]
10003264:	4659      	mov	r1, fp
10003266:	689f      	ldr	r7, [r3, #8]
10003268:	4633      	mov	r3, r6
1000326a:	47b8      	blx	r7
1000326c:	9b03      	ldr	r3, [sp, #12]
1000326e:	9a04      	ldr	r2, [sp, #16]
10003270:	eb03 0444 	add.w	r4, r3, r4, lsl #1
10003274:	b223      	sxth	r3, r4
10003276:	9303      	str	r3, [sp, #12]
10003278:	eb02 0343 	add.w	r3, r2, r3, lsl #1
1000327c:	b290      	uxth	r0, r2
1000327e:	b2a4      	uxth	r4, r4
10003280:	2b00      	cmp	r3, #0
10003282:	f108 31ff 	add.w	r1, r8, #4294967295	@ 0xffffffff
10003286:	f100 0202 	add.w	r2, r0, #2
1000328a:	4404      	add	r4, r0
1000328c:	f10a 0a01 	add.w	sl, sl, #1
10003290:	dd0c      	ble.n	100032ac <uGUI::DrawCircle(short, short, short, unsigned long) [clone .part.0]+0x130>
10003292:	b209      	sxth	r1, r1
10003294:	fa0f f38a 	sxth.w	r3, sl
10003298:	b220      	sxth	r0, r4
1000329a:	b212      	sxth	r2, r2
1000329c:	428b      	cmp	r3, r1
1000329e:	9105      	str	r1, [sp, #20]
100032a0:	9003      	str	r0, [sp, #12]
100032a2:	9204      	str	r2, [sp, #16]
100032a4:	dc08      	bgt.n	100032b8 <uGUI::DrawCircle(short, short, short, unsigned long) [clone .part.0]+0x13c>
100032a6:	fa1f f881 	uxth.w	r8, r1
100032aa:	e77c      	b.n	100031a6 <uGUI::DrawCircle(short, short, short, unsigned long) [clone .part.0]+0x2a>
100032ac:	9a05      	ldr	r2, [sp, #20]
100032ae:	fa0f f38a 	sxth.w	r3, sl
100032b2:	429a      	cmp	r2, r3
100032b4:	f6bf af77 	bge.w	100031a6 <uGUI::DrawCircle(short, short, short, unsigned long) [clone .part.0]+0x2a>
100032b8:	b007      	add	sp, #28
100032ba:	e8bd 8ff0 	ldmia.w	sp!, {r4, r5, r6, r7, r8, r9, sl, fp, pc}
100032be:	bf00      	nop

100032c0 <uGUI::uGUI(lcd_interface&)>:
100032c0:	b538      	push	{r3, r4, r5, lr}
100032c2:	4604      	mov	r4, r0
100032c4:	680b      	ldr	r3, [r1, #0]
100032c6:	6021      	str	r1, [r4, #0]
100032c8:	4608      	mov	r0, r1
100032ca:	681b      	ldr	r3, [r3, #0]
100032cc:	4798      	blx	r3
100032ce:	6823      	ldr	r3, [r4, #0]
100032d0:	80a0      	strh	r0, [r4, #4]
100032d2:	681a      	ldr	r2, [r3, #0]
100032d4:	4618      	mov	r0, r3
100032d6:	6853      	ldr	r3, [r2, #4]
100032d8:	4798      	blx	r3
100032da:	f06f 437f 	mvn.w	r3, #4278190080	@ 0xff000000
100032de:	2200      	movs	r2, #0
100032e0:	63e3      	str	r3, [r4, #60]	@ 0x3c
100032e2:	4603      	mov	r3, r0
100032e4:	f04f 1504 	mov.w	r5, #262148	@ 0x40004
100032e8:	f240 1c01 	movw	ip, #257	@ 0x101
100032ec:	88a1      	ldrh	r1, [r4, #4]
100032ee:	80e3      	strh	r3, [r4, #6]
100032f0:	3905      	subs	r1, #5
100032f2:	b209      	sxth	r1, r1
100032f4:	84a1      	strh	r1, [r4, #36]	@ 0x24
100032f6:	83a1      	strh	r1, [r4, #28]
100032f8:	4908      	ldr	r1, [pc, #32]	@ (1000331c <uGUI::uGUI(lcd_interface&)+0x5c>)
100032fa:	e9c4 2204 	strd	r2, r2, [r4, #16]
100032fe:	e9c4 2110 	strd	r2, r1, [r4, #64]	@ 0x40
10003302:	3b05      	subs	r3, #5
10003304:	b21b      	sxth	r3, r3
10003306:	f8a4 c038 	strh.w	ip, [r4, #56]	@ 0x38
1000330a:	6225      	str	r5, [r4, #32]
1000330c:	6322      	str	r2, [r4, #48]	@ 0x30
1000330e:	61a2      	str	r2, [r4, #24]
10003310:	f884 2048 	strb.w	r2, [r4, #72]	@ 0x48
10003314:	84e3      	strh	r3, [r4, #38]	@ 0x26
10003316:	83e3      	strh	r3, [r4, #30]
10003318:	4620      	mov	r0, r4
1000331a:	bd38      	pop	{r3, r4, r5, pc}
1000331c:	005e8bef 	.word	0x005e8bef

10003320 <uGUI::FontSelect(uGUI::FONT const*)>:
10003320:	680b      	ldr	r3, [r1, #0]
10003322:	6303      	str	r3, [r0, #48]	@ 0x30
10003324:	f9b1 3004 	ldrsh.w	r3, [r1, #4]
10003328:	8683      	strh	r3, [r0, #52]	@ 0x34
1000332a:	f9b1 3006 	ldrsh.w	r3, [r1, #6]
1000332e:	86c3      	strh	r3, [r0, #54]	@ 0x36
10003330:	4770      	bx	lr
10003332:	bf00      	nop

10003334 <uGUI::FillScreen(unsigned long)>:
10003334:	b570      	push	{r4, r5, r6, lr}
10003336:	f8b0 e004 	ldrh.w	lr, [r0, #4]
1000333a:	88c3      	ldrh	r3, [r0, #6]
1000333c:	f10e 3eff 	add.w	lr, lr, #4294967295	@ 0xffffffff
10003340:	3b01      	subs	r3, #1
10003342:	f41e 4f00 	tst.w	lr, #32768	@ 0x8000
10003346:	fa0f fc83 	sxth.w	ip, r3
1000334a:	460c      	mov	r4, r1
1000334c:	fa1f f18e 	uxth.w	r1, lr
10003350:	b29a      	uxth	r2, r3
10003352:	bf0a      	itet	eq
10003354:	460b      	moveq	r3, r1
10003356:	2300      	movne	r3, #0
10003358:	2100      	moveq	r1, #0
1000335a:	f1bc 0f00 	cmp.w	ip, #0
1000335e:	bfac      	ite	ge
10003360:	4616      	movge	r6, r2
10003362:	2600      	movlt	r6, #0
10003364:	6800      	ldr	r0, [r0, #0]
10003366:	b082      	sub	sp, #8
10003368:	6805      	ldr	r5, [r0, #0]
1000336a:	e9cd 6400 	strd	r6, r4, [sp]
1000336e:	bfa8      	it	ge
10003370:	2200      	movge	r2, #0
10003372:	69ac      	ldr	r4, [r5, #24]
10003374:	47a0      	blx	r4
10003376:	b002      	add	sp, #8
10003378:	bd70      	pop	{r4, r5, r6, pc}
1000337a:	bf00      	nop

1000337c <uGUI::FillFrame(short, short, short, short, unsigned long)>:
1000337c:	b570      	push	{r4, r5, r6, lr}
1000337e:	428b      	cmp	r3, r1
10003380:	469c      	mov	ip, r3
10003382:	f9bd e010 	ldrsh.w	lr, [sp, #16]
10003386:	9d05      	ldr	r5, [sp, #20]
10003388:	db01      	blt.n	1000338e <uGUI::FillFrame(short, short, short, short, unsigned long)+0x12>
1000338a:	468c      	mov	ip, r1
1000338c:	4619      	mov	r1, r3
1000338e:	4596      	cmp	lr, r2
10003390:	db02      	blt.n	10003398 <uGUI::FillFrame(short, short, short, short, unsigned long)+0x1c>
10003392:	4673      	mov	r3, lr
10003394:	4696      	mov	lr, r2
10003396:	461a      	mov	r2, r3
10003398:	6800      	ldr	r0, [r0, #0]
1000339a:	b294      	uxth	r4, r2
1000339c:	6806      	ldr	r6, [r0, #0]
1000339e:	e9cd 4504 	strd	r4, r5, [sp, #16]
100033a2:	69b4      	ldr	r4, [r6, #24]
100033a4:	b28b      	uxth	r3, r1
100033a6:	fa1f f28e 	uxth.w	r2, lr
100033aa:	fa1f f18c 	uxth.w	r1, ip
100033ae:	46a4      	mov	ip, r4
100033b0:	e8bd 4070 	ldmia.w	sp!, {r4, r5, r6, lr}
100033b4:	4760      	bx	ip
100033b6:	bf00      	nop

100033b8 <uGUI::DrawPixel(short, short, unsigned long)>:
100033b8:	b410      	push	{r4}
100033ba:	6800      	ldr	r0, [r0, #0]
100033bc:	b289      	uxth	r1, r1
100033be:	6804      	ldr	r4, [r0, #0]
100033c0:	b292      	uxth	r2, r2
100033c2:	68a4      	ldr	r4, [r4, #8]
100033c4:	46a4      	mov	ip, r4
100033c6:	f85d 4b04 	ldr.w	r4, [sp], #4
100033ca:	4760      	bx	ip

100033cc <uGUI::DrawLine(short, short, short, short, unsigned long)>:
100033cc:	e92d 4ff0 	stmdb	sp!, {r4, r5, r6, r7, r8, r9, sl, fp, lr}
100033d0:	b085      	sub	sp, #20
100033d2:	9c0f      	ldr	r4, [sp, #60]	@ 0x3c
100033d4:	f9bd c038 	ldrsh.w	ip, [sp, #56]	@ 0x38
100033d8:	9400      	str	r4, [sp, #0]
100033da:	4614      	mov	r4, r2
100033dc:	4564      	cmp	r4, ip
100033de:	4606      	mov	r6, r0
100033e0:	461d      	mov	r5, r3
100033e2:	fa1f fb81 	uxth.w	fp, r1
100033e6:	b292      	uxth	r2, r2
100033e8:	d060      	beq.n	100034ac <uGUI::DrawLine(short, short, short, short, unsigned long)+0xe0>
100033ea:	4299      	cmp	r1, r3
100033ec:	fa1f f78c 	uxth.w	r7, ip
100033f0:	f000 80c7 	beq.w	10003582 <uGUI::DrawLine(short, short, short, short, unsigned long)+0x1b6>
100033f4:	f64f 7aff 	movw	sl, #65535	@ 0xffff
100033f8:	eba3 050b 	sub.w	r5, r3, fp
100033fc:	b22d      	sxth	r5, r5
100033fe:	1abb      	subs	r3, r7, r2
10003400:	b21b      	sxth	r3, r3
10003402:	ea85 78e5 	eor.w	r8, r5, r5, asr #31
10003406:	eba8 78e5 	sub.w	r8, r8, r5, asr #31
1000340a:	ea83 77e3 	eor.w	r7, r3, r3, asr #31
1000340e:	eba7 77e3 	sub.w	r7, r7, r3, asr #31
10003412:	fa1f f188 	uxth.w	r1, r8
10003416:	9101      	str	r1, [sp, #4]
10003418:	6800      	ldr	r0, [r0, #0]
1000341a:	b2b9      	uxth	r1, r7
1000341c:	9102      	str	r1, [sp, #8]
1000341e:	2d00      	cmp	r5, #0
10003420:	6801      	ldr	r1, [r0, #0]
10003422:	bfd4      	ite	le
10003424:	46d1      	movle	r9, sl
10003426:	f04f 0901 	movgt.w	r9, #1
1000342a:	2b00      	cmp	r3, #0
1000342c:	688d      	ldr	r5, [r1, #8]
1000342e:	9b00      	ldr	r3, [sp, #0]
10003430:	4659      	mov	r1, fp
10003432:	fa0f f888 	sxth.w	r8, r8
10003436:	b23f      	sxth	r7, r7
10003438:	9203      	str	r2, [sp, #12]
1000343a:	dd2f      	ble.n	1000349c <uGUI::DrawLine(short, short, short, short, unsigned long)+0xd0>
1000343c:	47a8      	blx	r5
1000343e:	45b8      	cmp	r8, r7
10003440:	9a03      	ldr	r2, [sp, #12]
10003442:	db41      	blt.n	100034c8 <uGUI::DrawLine(short, short, short, short, unsigned long)+0xfc>
10003444:	f04f 0a01 	mov.w	sl, #1
10003448:	eb09 040b 	add.w	r4, r9, fp
1000344c:	fa1f fb84 	uxth.w	fp, r4
10003450:	4659      	mov	r1, fp
10003452:	2700      	movs	r7, #0
10003454:	4693      	mov	fp, r2
10003456:	ea4f 0568 	mov.w	r5, r8, asr #1
1000345a:	9b02      	ldr	r3, [sp, #8]
1000345c:	9a01      	ldr	r2, [sp, #4]
1000345e:	442b      	add	r3, r5
10003460:	b21d      	sxth	r5, r3
10003462:	45a8      	cmp	r8, r5
10003464:	b29b      	uxth	r3, r3
10003466:	eb0a 040b 	add.w	r4, sl, fp
1000346a:	eba3 0302 	sub.w	r3, r3, r2
1000346e:	dc76      	bgt.n	1000355e <uGUI::DrawLine(short, short, short, short, unsigned long)+0x192>
10003470:	6830      	ldr	r0, [r6, #0]
10003472:	9103      	str	r1, [sp, #12]
10003474:	6802      	ldr	r2, [r0, #0]
10003476:	b21d      	sxth	r5, r3
10003478:	f8d2 b008 	ldr.w	fp, [r2, #8]
1000347c:	9b00      	ldr	r3, [sp, #0]
1000347e:	b2a2      	uxth	r2, r4
10003480:	47d8      	blx	fp
10003482:	3701      	adds	r7, #1
10003484:	9903      	ldr	r1, [sp, #12]
10003486:	b23b      	sxth	r3, r7
10003488:	b224      	sxth	r4, r4
1000348a:	4449      	add	r1, r9
1000348c:	4598      	cmp	r8, r3
1000348e:	b289      	uxth	r1, r1
10003490:	fa1f fb84 	uxth.w	fp, r4
10003494:	dce1      	bgt.n	1000345a <uGUI::DrawLine(short, short, short, short, unsigned long)+0x8e>
10003496:	b005      	add	sp, #20
10003498:	e8bd 8ff0 	ldmia.w	sp!, {r4, r5, r6, r7, r8, r9, sl, fp, pc}
1000349c:	47a8      	blx	r5
1000349e:	45b8      	cmp	r8, r7
100034a0:	9a03      	ldr	r2, [sp, #12]
100034a2:	db3e      	blt.n	10003522 <uGUI::DrawLine(short, short, short, short, unsigned long)+0x156>
100034a4:	f1b8 0f00 	cmp.w	r8, #0
100034a8:	dcce      	bgt.n	10003448 <uGUI::DrawLine(short, short, short, short, unsigned long)+0x7c>
100034aa:	e7f4      	b.n	10003496 <uGUI::DrawLine(short, short, short, short, unsigned long)+0xca>
100034ac:	4299      	cmp	r1, r3
100034ae:	dd3e      	ble.n	1000352e <uGUI::DrawLine(short, short, short, short, unsigned long)+0x162>
100034b0:	6830      	ldr	r0, [r6, #0]
100034b2:	b2a9      	uxth	r1, r5
100034b4:	9d00      	ldr	r5, [sp, #0]
100034b6:	6804      	ldr	r4, [r0, #0]
100034b8:	950e      	str	r5, [sp, #56]	@ 0x38
100034ba:	68e4      	ldr	r4, [r4, #12]
100034bc:	465b      	mov	r3, fp
100034be:	46a4      	mov	ip, r4
100034c0:	b005      	add	sp, #20
100034c2:	e8bd 4ff0 	ldmia.w	sp!, {r4, r5, r6, r7, r8, r9, sl, fp, lr}
100034c6:	4760      	bx	ip
100034c8:	2301      	movs	r3, #1
100034ca:	9303      	str	r3, [sp, #12]
100034cc:	441a      	add	r2, r3
100034ce:	fa1f fa82 	uxth.w	sl, r2
100034d2:	4654      	mov	r4, sl
100034d4:	f04f 0800 	mov.w	r8, #0
100034d8:	46da      	mov	sl, fp
100034da:	107d      	asrs	r5, r7, #1
100034dc:	9b01      	ldr	r3, [sp, #4]
100034de:	9a02      	ldr	r2, [sp, #8]
100034e0:	442b      	add	r3, r5
100034e2:	b21d      	sxth	r5, r3
100034e4:	42af      	cmp	r7, r5
100034e6:	b29b      	uxth	r3, r3
100034e8:	eb09 0b0a 	add.w	fp, r9, sl
100034ec:	eba3 0302 	sub.w	r3, r3, r2
100034f0:	dc21      	bgt.n	10003536 <uGUI::DrawLine(short, short, short, short, unsigned long)+0x16a>
100034f2:	6830      	ldr	r0, [r6, #0]
100034f4:	4622      	mov	r2, r4
100034f6:	6801      	ldr	r1, [r0, #0]
100034f8:	b21d      	sxth	r5, r3
100034fa:	f8d1 a008 	ldr.w	sl, [r1, #8]
100034fe:	9b00      	ldr	r3, [sp, #0]
10003500:	fa1f f18b 	uxth.w	r1, fp
10003504:	47d0      	blx	sl
10003506:	9b03      	ldr	r3, [sp, #12]
10003508:	f108 0801 	add.w	r8, r8, #1
1000350c:	191a      	adds	r2, r3, r4
1000350e:	fa0f f388 	sxth.w	r3, r8
10003512:	fa0f fb8b 	sxth.w	fp, fp
10003516:	429f      	cmp	r7, r3
10003518:	b294      	uxth	r4, r2
1000351a:	fa1f fa8b 	uxth.w	sl, fp
1000351e:	dcdd      	bgt.n	100034dc <uGUI::DrawLine(short, short, short, short, unsigned long)+0x110>
10003520:	e7b9      	b.n	10003496 <uGUI::DrawLine(short, short, short, short, unsigned long)+0xca>
10003522:	2f00      	cmp	r7, #0
10003524:	d0b7      	beq.n	10003496 <uGUI::DrawLine(short, short, short, short, unsigned long)+0xca>
10003526:	4653      	mov	r3, sl
10003528:	f8cd a00c 	str.w	sl, [sp, #12]
1000352c:	e7ce      	b.n	100034cc <uGUI::DrawLine(short, short, short, short, unsigned long)+0x100>
1000352e:	460d      	mov	r5, r1
10003530:	fa1f fb83 	uxth.w	fp, r3
10003534:	e7bc      	b.n	100034b0 <uGUI::DrawLine(short, short, short, short, unsigned long)+0xe4>
10003536:	6830      	ldr	r0, [r6, #0]
10003538:	4622      	mov	r2, r4
1000353a:	6801      	ldr	r1, [r0, #0]
1000353c:	9b00      	ldr	r3, [sp, #0]
1000353e:	f8d1 b008 	ldr.w	fp, [r1, #8]
10003542:	4651      	mov	r1, sl
10003544:	47d8      	blx	fp
10003546:	9b03      	ldr	r3, [sp, #12]
10003548:	f108 0801 	add.w	r8, r8, #1
1000354c:	191a      	adds	r2, r3, r4
1000354e:	fa0f f388 	sxth.w	r3, r8
10003552:	429f      	cmp	r7, r3
10003554:	b294      	uxth	r4, r2
10003556:	dcc1      	bgt.n	100034dc <uGUI::DrawLine(short, short, short, short, unsigned long)+0x110>
10003558:	b005      	add	sp, #20
1000355a:	e8bd 8ff0 	ldmia.w	sp!, {r4, r5, r6, r7, r8, r9, sl, fp, pc}
1000355e:	6830      	ldr	r0, [r6, #0]
10003560:	9b00      	ldr	r3, [sp, #0]
10003562:	6802      	ldr	r2, [r0, #0]
10003564:	9103      	str	r1, [sp, #12]
10003566:	6894      	ldr	r4, [r2, #8]
10003568:	465a      	mov	r2, fp
1000356a:	47a0      	blx	r4
1000356c:	3701      	adds	r7, #1
1000356e:	9903      	ldr	r1, [sp, #12]
10003570:	b23b      	sxth	r3, r7
10003572:	4449      	add	r1, r9
10003574:	4598      	cmp	r8, r3
10003576:	b289      	uxth	r1, r1
10003578:	f73f af6f 	bgt.w	1000345a <uGUI::DrawLine(short, short, short, short, unsigned long)+0x8e>
1000357c:	b005      	add	sp, #20
1000357e:	e8bd 8ff0 	ldmia.w	sp!, {r4, r5, r6, r7, r8, r9, sl, fp, pc}
10003582:	4564      	cmp	r4, ip
10003584:	bfd8      	it	le
10003586:	463a      	movle	r2, r7
10003588:	6800      	ldr	r0, [r0, #0]
1000358a:	9d00      	ldr	r5, [sp, #0]
1000358c:	bfd8      	it	le
1000358e:	b2a7      	uxthle	r7, r4
10003590:	6804      	ldr	r4, [r0, #0]
10003592:	950e      	str	r5, [sp, #56]	@ 0x38
10003594:	6924      	ldr	r4, [r4, #16]
10003596:	4613      	mov	r3, r2
10003598:	4659      	mov	r1, fp
1000359a:	463a      	mov	r2, r7
1000359c:	46a4      	mov	ip, r4
1000359e:	b005      	add	sp, #20
100035a0:	e8bd 4ff0 	ldmia.w	sp!, {r4, r5, r6, r7, r8, r9, sl, fp, lr}
100035a4:	4760      	bx	ip
100035a6:	bf00      	nop

100035a8 <uGUI::FillRoundFrame(short, short, short, short, short, unsigned long)>:
100035a8:	e92d 4ff0 	stmdb	sp!, {r4, r5, r6, r7, r8, r9, sl, fp, lr}
100035ac:	428b      	cmp	r3, r1
100035ae:	b087      	sub	sp, #28
100035b0:	4693      	mov	fp, r2
100035b2:	f9bd a040 	ldrsh.w	sl, [sp, #64]	@ 0x40
100035b6:	f9bd 5044 	ldrsh.w	r5, [sp, #68]	@ 0x44
100035ba:	9002      	str	r0, [sp, #8]
100035bc:	db02      	blt.n	100035c4 <uGUI::FillRoundFrame(short, short, short, short, short, unsigned long)+0x1c>
100035be:	461a      	mov	r2, r3
100035c0:	460b      	mov	r3, r1
100035c2:	4611      	mov	r1, r2
100035c4:	45da      	cmp	sl, fp
100035c6:	db02      	blt.n	100035ce <uGUI::FillRoundFrame(short, short, short, short, short, unsigned long)+0x26>
100035c8:	4652      	mov	r2, sl
100035ca:	46da      	mov	sl, fp
100035cc:	4693      	mov	fp, r2
100035ce:	2d00      	cmp	r5, #0
100035d0:	f340 8085 	ble.w	100036de <uGUI::FillRoundFrame(short, short, short, short, short, unsigned long)+0x136>
100035d4:	b2ac      	uxth	r4, r5
100035d6:	4423      	add	r3, r4
100035d8:	1b09      	subs	r1, r1, r4
100035da:	b21a      	sxth	r2, r3
100035dc:	b298      	uxth	r0, r3
100035de:	b20b      	sxth	r3, r1
100035e0:	429a      	cmp	r2, r3
100035e2:	b289      	uxth	r1, r1
100035e4:	bfd4      	ite	le
100035e6:	460b      	movle	r3, r1
100035e8:	4603      	movgt	r3, r0
100035ea:	9104      	str	r1, [sp, #16]
100035ec:	bfd8      	it	le
100035ee:	4601      	movle	r1, r0
100035f0:	45da      	cmp	sl, fp
100035f2:	bfd4      	ite	le
100035f4:	465e      	movle	r6, fp
100035f6:	4656      	movgt	r6, sl
100035f8:	9003      	str	r0, [sp, #12]
100035fa:	9802      	ldr	r0, [sp, #8]
100035fc:	b2b6      	uxth	r6, r6
100035fe:	6800      	ldr	r0, [r0, #0]
10003600:	bfd8      	it	le
10003602:	4652      	movle	r2, sl
10003604:	6807      	ldr	r7, [r0, #0]
10003606:	9600      	str	r6, [sp, #0]
10003608:	9e12      	ldr	r6, [sp, #72]	@ 0x48
1000360a:	bfc8      	it	gt
1000360c:	465a      	movgt	r2, fp
1000360e:	9601      	str	r6, [sp, #4]
10003610:	69be      	ldr	r6, [r7, #24]
10003612:	2700      	movs	r7, #0
10003614:	b292      	uxth	r2, r2
10003616:	47b0      	blx	r6
10003618:	46b9      	mov	r9, r7
1000361a:	ea4f 0844 	mov.w	r8, r4, lsl #1
1000361e:	f1c8 0803 	rsb	r8, r8, #3
10003622:	fa0f f888 	sxth.w	r8, r8
10003626:	44a2      	add	sl, r4
10003628:	ebab 0b04 	sub.w	fp, fp, r4
1000362c:	9b04      	ldr	r3, [sp, #16]
1000362e:	b2ac      	uxth	r4, r5
10003630:	b2be      	uxth	r6, r7
10003632:	ebaa 0204 	sub.w	r2, sl, r4
10003636:	4433      	add	r3, r6
10003638:	445c      	add	r4, fp
1000363a:	2d00      	cmp	r5, #0
1000363c:	b212      	sxth	r2, r2
1000363e:	b224      	sxth	r4, r4
10003640:	b21b      	sxth	r3, r3
10003642:	dd12      	ble.n	1000366a <uGUI::FillRoundFrame(short, short, short, short, short, unsigned long)+0xc2>
10003644:	9912      	ldr	r1, [sp, #72]	@ 0x48
10003646:	9802      	ldr	r0, [sp, #8]
10003648:	e9cd 4100 	strd	r4, r1, [sp]
1000364c:	4619      	mov	r1, r3
1000364e:	9205      	str	r2, [sp, #20]
10003650:	f7ff febc 	bl	100033cc <uGUI::DrawLine(short, short, short, short, unsigned long)>
10003654:	9b12      	ldr	r3, [sp, #72]	@ 0x48
10003656:	9a05      	ldr	r2, [sp, #20]
10003658:	9301      	str	r3, [sp, #4]
1000365a:	9b03      	ldr	r3, [sp, #12]
1000365c:	9802      	ldr	r0, [sp, #8]
1000365e:	1b9b      	subs	r3, r3, r6
10003660:	b21b      	sxth	r3, r3
10003662:	4619      	mov	r1, r3
10003664:	9400      	str	r4, [sp, #0]
10003666:	f7ff feb1 	bl	100033cc <uGUI::DrawLine(short, short, short, short, unsigned long)>
1000366a:	9b03      	ldr	r3, [sp, #12]
1000366c:	b2ac      	uxth	r4, r5
1000366e:	1b1b      	subs	r3, r3, r4
10003670:	ebaa 0206 	sub.w	r2, sl, r6
10003674:	f1b9 0f00 	cmp.w	r9, #0
10003678:	b21b      	sxth	r3, r3
1000367a:	b212      	sxth	r2, r2
1000367c:	dd18      	ble.n	100036b0 <uGUI::FillRoundFrame(short, short, short, short, short, unsigned long)+0x108>
1000367e:	9912      	ldr	r1, [sp, #72]	@ 0x48
10003680:	eb06 090b 	add.w	r9, r6, fp
10003684:	fa0f f989 	sxth.w	r9, r9
10003688:	9802      	ldr	r0, [sp, #8]
1000368a:	9101      	str	r1, [sp, #4]
1000368c:	f8cd 9000 	str.w	r9, [sp]
10003690:	4619      	mov	r1, r3
10003692:	9205      	str	r2, [sp, #20]
10003694:	f7ff fe9a 	bl	100033cc <uGUI::DrawLine(short, short, short, short, unsigned long)>
10003698:	9b04      	ldr	r3, [sp, #16]
1000369a:	9912      	ldr	r1, [sp, #72]	@ 0x48
1000369c:	4423      	add	r3, r4
1000369e:	b21b      	sxth	r3, r3
100036a0:	9101      	str	r1, [sp, #4]
100036a2:	9a05      	ldr	r2, [sp, #20]
100036a4:	4619      	mov	r1, r3
100036a6:	9802      	ldr	r0, [sp, #8]
100036a8:	f8cd 9000 	str.w	r9, [sp]
100036ac:	f7ff fe8e 	bl	100033cc <uGUI::DrawLine(short, short, short, short, unsigned long)>
100036b0:	b2ab      	uxth	r3, r5
100036b2:	1af0      	subs	r0, r6, r3
100036b4:	1e59      	subs	r1, r3, #1
100036b6:	fa1f f388 	uxth.w	r3, r8
100036ba:	f103 020a 	add.w	r2, r3, #10
100036be:	eb02 0280 	add.w	r2, r2, r0, lsl #2
100036c2:	3306      	adds	r3, #6
100036c4:	f1b8 0f00 	cmp.w	r8, #0
100036c8:	eb03 0386 	add.w	r3, r3, r6, lsl #2
100036cc:	fa0f f882 	sxth.w	r8, r2
100036d0:	db08      	blt.n	100036e4 <uGUI::FillRoundFrame(short, short, short, short, short, unsigned long)+0x13c>
100036d2:	3701      	adds	r7, #1
100036d4:	b20d      	sxth	r5, r1
100036d6:	fa0f f987 	sxth.w	r9, r7
100036da:	454d      	cmp	r5, r9
100036dc:	daa6      	bge.n	1000362c <uGUI::FillRoundFrame(short, short, short, short, short, unsigned long)+0x84>
100036de:	b007      	add	sp, #28
100036e0:	e8bd 8ff0 	ldmia.w	sp!, {r4, r5, r6, r7, r8, r9, sl, fp, pc}
100036e4:	3701      	adds	r7, #1
100036e6:	fa0f f987 	sxth.w	r9, r7
100036ea:	45a9      	cmp	r9, r5
100036ec:	fa0f f883 	sxth.w	r8, r3
100036f0:	dd9c      	ble.n	1000362c <uGUI::FillRoundFrame(short, short, short, short, short, unsigned long)+0x84>
100036f2:	b007      	add	sp, #28
100036f4:	e8bd 8ff0 	ldmia.w	sp!, {r4, r5, r6, r7, r8, r9, sl, fp, pc}

100036f8 <uGUI::DrawRoundFrame(short, short, short, short, short, unsigned long)>:
100036f8:	e92d 4ff0 	stmdb	sp!, {r4, r5, r6, r7, r8, r9, sl, fp, lr}
100036fc:	428b      	cmp	r3, r1
100036fe:	b08d      	sub	sp, #52	@ 0x34
10003700:	460e      	mov	r6, r1
10003702:	461f      	mov	r7, r3
10003704:	4605      	mov	r5, r0
10003706:	4690      	mov	r8, r2
10003708:	f9bd 9058 	ldrsh.w	r9, [sp, #88]	@ 0x58
1000370c:	f9bd 405c 	ldrsh.w	r4, [sp, #92]	@ 0x5c
10003710:	f8dd a060 	ldr.w	sl, [sp, #96]	@ 0x60
10003714:	db01      	blt.n	1000371a <uGUI::DrawRoundFrame(short, short, short, short, short, unsigned long)+0x22>
10003716:	460f      	mov	r7, r1
10003718:	461e      	mov	r6, r3
1000371a:	45c1      	cmp	r9, r8
1000371c:	db02      	blt.n	10003724 <uGUI::DrawRoundFrame(short, short, short, short, short, unsigned long)+0x2c>
1000371e:	464b      	mov	r3, r9
10003720:	46c1      	mov	r9, r8
10003722:	4698      	mov	r8, r3
10003724:	42a6      	cmp	r6, r4
10003726:	db01      	blt.n	1000372c <uGUI::DrawRoundFrame(short, short, short, short, short, unsigned long)+0x34>
10003728:	45a0      	cmp	r8, r4
1000372a:	da02      	bge.n	10003732 <uGUI::DrawRoundFrame(short, short, short, short, short, unsigned long)+0x3a>
1000372c:	b00d      	add	sp, #52	@ 0x34
1000372e:	e8bd 8ff0 	ldmia.w	sp!, {r4, r5, r6, r7, r8, r9, sl, fp, pc}
10003732:	b2a3      	uxth	r3, r4
10003734:	19da      	adds	r2, r3, r7
10003736:	b211      	sxth	r1, r2
10003738:	468b      	mov	fp, r1
1000373a:	b290      	uxth	r0, r2
1000373c:	9307      	str	r3, [sp, #28]
1000373e:	1af3      	subs	r3, r6, r3
10003740:	b29a      	uxth	r2, r3
10003742:	9002      	str	r0, [sp, #8]
10003744:	b218      	sxth	r0, r3
10003746:	4603      	mov	r3, r0
10003748:	e9cd 9a00 	strd	r9, sl, [sp]
1000374c:	9203      	str	r2, [sp, #12]
1000374e:	9008      	str	r0, [sp, #32]
10003750:	464a      	mov	r2, r9
10003752:	4628      	mov	r0, r5
10003754:	910a      	str	r1, [sp, #40]	@ 0x28
10003756:	f7ff fe39 	bl	100033cc <uGUI::DrawLine(short, short, short, short, unsigned long)>
1000375a:	4642      	mov	r2, r8
1000375c:	4659      	mov	r1, fp
1000375e:	4628      	mov	r0, r5
10003760:	e9cd 8a00 	strd	r8, sl, [sp]
10003764:	9b08      	ldr	r3, [sp, #32]
10003766:	f7ff fe31 	bl	100033cc <uGUI::DrawLine(short, short, short, short, unsigned long)>
1000376a:	9a07      	ldr	r2, [sp, #28]
1000376c:	4639      	mov	r1, r7
1000376e:	4491      	add	r9, r2
10003770:	eba8 0302 	sub.w	r3, r8, r2
10003774:	fa1f f089 	uxth.w	r0, r9
10003778:	fa0f f889 	sxth.w	r8, r9
1000377c:	9004      	str	r0, [sp, #16]
1000377e:	b218      	sxth	r0, r3
10003780:	b29b      	uxth	r3, r3
10003782:	4642      	mov	r2, r8
10003784:	9009      	str	r0, [sp, #36]	@ 0x24
10003786:	9000      	str	r0, [sp, #0]
10003788:	9305      	str	r3, [sp, #20]
1000378a:	4628      	mov	r0, r5
1000378c:	463b      	mov	r3, r7
1000378e:	f8cd a004 	str.w	sl, [sp, #4]
10003792:	f7ff fe1b 	bl	100033cc <uGUI::DrawLine(short, short, short, short, unsigned long)>
10003796:	9809      	ldr	r0, [sp, #36]	@ 0x24
10003798:	4631      	mov	r1, r6
1000379a:	9000      	str	r0, [sp, #0]
1000379c:	4633      	mov	r3, r6
1000379e:	4642      	mov	r2, r8
100037a0:	4628      	mov	r0, r5
100037a2:	f8cd a004 	str.w	sl, [sp, #4]
100037a6:	f7ff fe11 	bl	100033cc <uGUI::DrawLine(short, short, short, short, unsigned long)>
100037aa:	4659      	mov	r1, fp
100037ac:	2900      	cmp	r1, #0
100037ae:	f2c0 812a 	blt.w	10003a06 <uGUI::DrawRoundFrame(short, short, short, short, short, unsigned long)+0x30e>
100037b2:	f1b8 0f00 	cmp.w	r8, #0
100037b6:	f2c0 8137 	blt.w	10003a28 <uGUI::DrawRoundFrame(short, short, short, short, short, unsigned long)+0x330>
100037ba:	2c00      	cmp	r4, #0
100037bc:	ddb6      	ble.n	1000372c <uGUI::DrawRoundFrame(short, short, short, short, short, unsigned long)+0x34>
100037be:	2600      	movs	r6, #0
100037c0:	9a07      	ldr	r2, [sp, #28]
100037c2:	46a3      	mov	fp, r4
100037c4:	0053      	lsls	r3, r2, #1
100037c6:	f1c3 0301 	rsb	r3, r3, #1
100037ca:	b21b      	sxth	r3, r3
100037cc:	4699      	mov	r9, r3
100037ce:	4690      	mov	r8, r2
100037d0:	4637      	mov	r7, r6
100037d2:	9306      	str	r3, [sp, #24]
100037d4:	940b      	str	r4, [sp, #44]	@ 0x2c
100037d6:	f8cd a060 	str.w	sl, [sp, #96]	@ 0x60
100037da:	6828      	ldr	r0, [r5, #0]
100037dc:	9902      	ldr	r1, [sp, #8]
100037de:	6803      	ldr	r3, [r0, #0]
100037e0:	b2b4      	uxth	r4, r6
100037e2:	f8d3 a008 	ldr.w	sl, [r3, #8]
100037e6:	9b04      	ldr	r3, [sp, #16]
100037e8:	1b09      	subs	r1, r1, r4
100037ea:	eba3 0208 	sub.w	r2, r3, r8
100037ee:	b292      	uxth	r2, r2
100037f0:	9b18      	ldr	r3, [sp, #96]	@ 0x60
100037f2:	b289      	uxth	r1, r1
100037f4:	47d0      	blx	sl
100037f6:	9b04      	ldr	r3, [sp, #16]
100037f8:	6828      	ldr	r0, [r5, #0]
100037fa:	9902      	ldr	r1, [sp, #8]
100037fc:	1b1a      	subs	r2, r3, r4
100037fe:	6803      	ldr	r3, [r0, #0]
10003800:	eb07 0444 	add.w	r4, r7, r4, lsl #1
10003804:	eba1 0108 	sub.w	r1, r1, r8
10003808:	f8d3 a008 	ldr.w	sl, [r3, #8]
1000380c:	b292      	uxth	r2, r2
1000380e:	9b18      	ldr	r3, [sp, #96]	@ 0x60
10003810:	b289      	uxth	r1, r1
10003812:	b227      	sxth	r7, r4
10003814:	47d0      	blx	sl
10003816:	eb09 0147 	add.w	r1, r9, r7, lsl #1
1000381a:	fa1f f389 	uxth.w	r3, r9
1000381e:	b2a4      	uxth	r4, r4
10003820:	2900      	cmp	r1, #0
10003822:	441c      	add	r4, r3
10003824:	f108 32ff 	add.w	r2, r8, #4294967295	@ 0xffffffff
10003828:	f106 0601 	add.w	r6, r6, #1
1000382c:	f103 0302 	add.w	r3, r3, #2
10003830:	dd0a      	ble.n	10003848 <uGUI::DrawRoundFrame(short, short, short, short, short, unsigned long)+0x150>
10003832:	fa0f fb82 	sxth.w	fp, r2
10003836:	fa0f f983 	sxth.w	r9, r3
1000383a:	b233      	sxth	r3, r6
1000383c:	459b      	cmp	fp, r3
1000383e:	b227      	sxth	r7, r4
10003840:	db05      	blt.n	1000384e <uGUI::DrawRoundFrame(short, short, short, short, short, unsigned long)+0x156>
10003842:	fa1f f88b 	uxth.w	r8, fp
10003846:	e7c8      	b.n	100037da <uGUI::DrawRoundFrame(short, short, short, short, short, unsigned long)+0xe2>
10003848:	b233      	sxth	r3, r6
1000384a:	455b      	cmp	r3, fp
1000384c:	ddc5      	ble.n	100037da <uGUI::DrawRoundFrame(short, short, short, short, short, unsigned long)+0xe2>
1000384e:	9b08      	ldr	r3, [sp, #32]
10003850:	9c0b      	ldr	r4, [sp, #44]	@ 0x2c
10003852:	2b00      	cmp	r3, #0
10003854:	f8dd a060 	ldr.w	sl, [sp, #96]	@ 0x60
10003858:	db49      	blt.n	100038ee <uGUI::DrawRoundFrame(short, short, short, short, short, unsigned long)+0x1f6>
1000385a:	2600      	movs	r6, #0
1000385c:	46a3      	mov	fp, r4
1000385e:	4637      	mov	r7, r6
10003860:	f8dd 9018 	ldr.w	r9, [sp, #24]
10003864:	fa1f f884 	uxth.w	r8, r4
10003868:	940b      	str	r4, [sp, #44]	@ 0x2c
1000386a:	f8cd a060 	str.w	sl, [sp, #96]	@ 0x60
1000386e:	6828      	ldr	r0, [r5, #0]
10003870:	9903      	ldr	r1, [sp, #12]
10003872:	6803      	ldr	r3, [r0, #0]
10003874:	b2b4      	uxth	r4, r6
10003876:	f8d3 a008 	ldr.w	sl, [r3, #8]
1000387a:	9b04      	ldr	r3, [sp, #16]
1000387c:	4441      	add	r1, r8
1000387e:	1b1a      	subs	r2, r3, r4
10003880:	b292      	uxth	r2, r2
10003882:	9b18      	ldr	r3, [sp, #96]	@ 0x60
10003884:	b289      	uxth	r1, r1
10003886:	47d0      	blx	sl
10003888:	9b04      	ldr	r3, [sp, #16]
1000388a:	6828      	ldr	r0, [r5, #0]
1000388c:	9903      	ldr	r1, [sp, #12]
1000388e:	eba3 0208 	sub.w	r2, r3, r8
10003892:	6803      	ldr	r3, [r0, #0]
10003894:	4421      	add	r1, r4
10003896:	eb07 0444 	add.w	r4, r7, r4, lsl #1
1000389a:	f8d3 a008 	ldr.w	sl, [r3, #8]
1000389e:	b292      	uxth	r2, r2
100038a0:	9b18      	ldr	r3, [sp, #96]	@ 0x60
100038a2:	b289      	uxth	r1, r1
100038a4:	b227      	sxth	r7, r4
100038a6:	47d0      	blx	sl
100038a8:	eb09 0147 	add.w	r1, r9, r7, lsl #1
100038ac:	fa1f f389 	uxth.w	r3, r9
100038b0:	b2a4      	uxth	r4, r4
100038b2:	2900      	cmp	r1, #0
100038b4:	441c      	add	r4, r3
100038b6:	f108 32ff 	add.w	r2, r8, #4294967295	@ 0xffffffff
100038ba:	f106 0601 	add.w	r6, r6, #1
100038be:	f103 0302 	add.w	r3, r3, #2
100038c2:	dd0a      	ble.n	100038da <uGUI::DrawRoundFrame(short, short, short, short, short, unsigned long)+0x1e2>
100038c4:	fa0f fb82 	sxth.w	fp, r2
100038c8:	fa0f f983 	sxth.w	r9, r3
100038cc:	b233      	sxth	r3, r6
100038ce:	459b      	cmp	fp, r3
100038d0:	b227      	sxth	r7, r4
100038d2:	db05      	blt.n	100038e0 <uGUI::DrawRoundFrame(short, short, short, short, short, unsigned long)+0x1e8>
100038d4:	fa1f f88b 	uxth.w	r8, fp
100038d8:	e7c9      	b.n	1000386e <uGUI::DrawRoundFrame(short, short, short, short, short, unsigned long)+0x176>
100038da:	b233      	sxth	r3, r6
100038dc:	455b      	cmp	r3, fp
100038de:	ddc6      	ble.n	1000386e <uGUI::DrawRoundFrame(short, short, short, short, short, unsigned long)+0x176>
100038e0:	9b0a      	ldr	r3, [sp, #40]	@ 0x28
100038e2:	9c0b      	ldr	r4, [sp, #44]	@ 0x2c
100038e4:	2b00      	cmp	r3, #0
100038e6:	f8dd a060 	ldr.w	sl, [sp, #96]	@ 0x60
100038ea:	f2c0 80ab 	blt.w	10003a44 <uGUI::DrawRoundFrame(short, short, short, short, short, unsigned long)+0x34c>
100038ee:	9b09      	ldr	r3, [sp, #36]	@ 0x24
100038f0:	2b00      	cmp	r3, #0
100038f2:	f6ff af1b 	blt.w	1000372c <uGUI::DrawRoundFrame(short, short, short, short, short, unsigned long)+0x34>
100038f6:	2600      	movs	r6, #0
100038f8:	4637      	mov	r7, r6
100038fa:	f8dd 9018 	ldr.w	r9, [sp, #24]
100038fe:	9404      	str	r4, [sp, #16]
10003900:	fa1f f884 	uxth.w	r8, r4
10003904:	9409      	str	r4, [sp, #36]	@ 0x24
10003906:	6828      	ldr	r0, [r5, #0]
10003908:	9902      	ldr	r1, [sp, #8]
1000390a:	6803      	ldr	r3, [r0, #0]
1000390c:	b2b4      	uxth	r4, r6
1000390e:	f8d3 b008 	ldr.w	fp, [r3, #8]
10003912:	9b05      	ldr	r3, [sp, #20]
10003914:	eba1 0108 	sub.w	r1, r1, r8
10003918:	191a      	adds	r2, r3, r4
1000391a:	b292      	uxth	r2, r2
1000391c:	4653      	mov	r3, sl
1000391e:	b289      	uxth	r1, r1
10003920:	47d8      	blx	fp
10003922:	9b05      	ldr	r3, [sp, #20]
10003924:	6828      	ldr	r0, [r5, #0]
10003926:	9902      	ldr	r1, [sp, #8]
10003928:	eb03 0208 	add.w	r2, r3, r8
1000392c:	6803      	ldr	r3, [r0, #0]
1000392e:	1b09      	subs	r1, r1, r4
10003930:	eb07 0444 	add.w	r4, r7, r4, lsl #1
10003934:	f8d3 b008 	ldr.w	fp, [r3, #8]
10003938:	b292      	uxth	r2, r2
1000393a:	4653      	mov	r3, sl
1000393c:	b289      	uxth	r1, r1
1000393e:	b227      	sxth	r7, r4
10003940:	47d8      	blx	fp
10003942:	eb09 0147 	add.w	r1, r9, r7, lsl #1
10003946:	fa1f f389 	uxth.w	r3, r9
1000394a:	b2a4      	uxth	r4, r4
1000394c:	2900      	cmp	r1, #0
1000394e:	441c      	add	r4, r3
10003950:	f108 32ff 	add.w	r2, r8, #4294967295	@ 0xffffffff
10003954:	f106 0601 	add.w	r6, r6, #1
10003958:	f103 0302 	add.w	r3, r3, #2
1000395c:	dd0a      	ble.n	10003974 <uGUI::DrawRoundFrame(short, short, short, short, short, unsigned long)+0x27c>
1000395e:	b212      	sxth	r2, r2
10003960:	fa0f f983 	sxth.w	r9, r3
10003964:	b233      	sxth	r3, r6
10003966:	4293      	cmp	r3, r2
10003968:	9204      	str	r2, [sp, #16]
1000396a:	b227      	sxth	r7, r4
1000396c:	dc06      	bgt.n	1000397c <uGUI::DrawRoundFrame(short, short, short, short, short, unsigned long)+0x284>
1000396e:	fa1f f882 	uxth.w	r8, r2
10003972:	e7c8      	b.n	10003906 <uGUI::DrawRoundFrame(short, short, short, short, short, unsigned long)+0x20e>
10003974:	9a04      	ldr	r2, [sp, #16]
10003976:	b233      	sxth	r3, r6
10003978:	4293      	cmp	r3, r2
1000397a:	ddc4      	ble.n	10003906 <uGUI::DrawRoundFrame(short, short, short, short, short, unsigned long)+0x20e>
1000397c:	e9dd 3408 	ldrd	r3, r4, [sp, #32]
10003980:	2b00      	cmp	r3, #0
10003982:	f6ff aed3 	blt.w	1000372c <uGUI::DrawRoundFrame(short, short, short, short, short, unsigned long)+0x34>
10003986:	2700      	movs	r7, #0
10003988:	46b8      	mov	r8, r7
1000398a:	f8dd 901c 	ldr.w	r9, [sp, #28]
1000398e:	6828      	ldr	r0, [r5, #0]
10003990:	9903      	ldr	r1, [sp, #12]
10003992:	6803      	ldr	r3, [r0, #0]
10003994:	b2be      	uxth	r6, r7
10003996:	f8d3 b008 	ldr.w	fp, [r3, #8]
1000399a:	9b05      	ldr	r3, [sp, #20]
1000399c:	4431      	add	r1, r6
1000399e:	eb03 0209 	add.w	r2, r3, r9
100039a2:	b292      	uxth	r2, r2
100039a4:	4653      	mov	r3, sl
100039a6:	b289      	uxth	r1, r1
100039a8:	47d8      	blx	fp
100039aa:	9b05      	ldr	r3, [sp, #20]
100039ac:	6828      	ldr	r0, [r5, #0]
100039ae:	9903      	ldr	r1, [sp, #12]
100039b0:	199a      	adds	r2, r3, r6
100039b2:	6803      	ldr	r3, [r0, #0]
100039b4:	4449      	add	r1, r9
100039b6:	f8d3 b008 	ldr.w	fp, [r3, #8]
100039ba:	b292      	uxth	r2, r2
100039bc:	4653      	mov	r3, sl
100039be:	b289      	uxth	r1, r1
100039c0:	47d8      	blx	fp
100039c2:	eb08 0646 	add.w	r6, r8, r6, lsl #1
100039c6:	9906      	ldr	r1, [sp, #24]
100039c8:	fa0f f886 	sxth.w	r8, r6
100039cc:	b28b      	uxth	r3, r1
100039ce:	eb01 0148 	add.w	r1, r1, r8, lsl #1
100039d2:	b2b6      	uxth	r6, r6
100039d4:	2900      	cmp	r1, #0
100039d6:	441e      	add	r6, r3
100039d8:	f109 32ff 	add.w	r2, r9, #4294967295	@ 0xffffffff
100039dc:	f107 0701 	add.w	r7, r7, #1
100039e0:	f103 0302 	add.w	r3, r3, #2
100039e4:	dd0b      	ble.n	100039fe <uGUI::DrawRoundFrame(short, short, short, short, short, unsigned long)+0x306>
100039e6:	b21b      	sxth	r3, r3
100039e8:	b214      	sxth	r4, r2
100039ea:	9306      	str	r3, [sp, #24]
100039ec:	b23b      	sxth	r3, r7
100039ee:	42a3      	cmp	r3, r4
100039f0:	fa0f f886 	sxth.w	r8, r6
100039f4:	f73f ae9a 	bgt.w	1000372c <uGUI::DrawRoundFrame(short, short, short, short, short, unsigned long)+0x34>
100039f8:	fa1f f984 	uxth.w	r9, r4
100039fc:	e7c7      	b.n	1000398e <uGUI::DrawRoundFrame(short, short, short, short, short, unsigned long)+0x296>
100039fe:	b23b      	sxth	r3, r7
10003a00:	429c      	cmp	r4, r3
10003a02:	dac4      	bge.n	1000398e <uGUI::DrawRoundFrame(short, short, short, short, short, unsigned long)+0x296>
10003a04:	e692      	b.n	1000372c <uGUI::DrawRoundFrame(short, short, short, short, short, unsigned long)+0x34>
10003a06:	9b08      	ldr	r3, [sp, #32]
10003a08:	2b00      	cmp	r3, #0
10003a0a:	f6ff ae8f 	blt.w	1000372c <uGUI::DrawRoundFrame(short, short, short, short, short, unsigned long)+0x34>
10003a0e:	f1b8 0f00 	cmp.w	r8, #0
10003a12:	db1b      	blt.n	10003a4c <uGUI::DrawRoundFrame(short, short, short, short, short, unsigned long)+0x354>
10003a14:	2c00      	cmp	r4, #0
10003a16:	f77f ae89 	ble.w	1000372c <uGUI::DrawRoundFrame(short, short, short, short, short, unsigned long)+0x34>
10003a1a:	9b07      	ldr	r3, [sp, #28]
10003a1c:	005b      	lsls	r3, r3, #1
10003a1e:	f1c3 0301 	rsb	r3, r3, #1
10003a22:	b21b      	sxth	r3, r3
10003a24:	9306      	str	r3, [sp, #24]
10003a26:	e718      	b.n	1000385a <uGUI::DrawRoundFrame(short, short, short, short, short, unsigned long)+0x162>
10003a28:	9b09      	ldr	r3, [sp, #36]	@ 0x24
10003a2a:	2b00      	cmp	r3, #0
10003a2c:	f6ff ae7e 	blt.w	1000372c <uGUI::DrawRoundFrame(short, short, short, short, short, unsigned long)+0x34>
10003a30:	2c00      	cmp	r4, #0
10003a32:	f77f ae7b 	ble.w	1000372c <uGUI::DrawRoundFrame(short, short, short, short, short, unsigned long)+0x34>
10003a36:	9b07      	ldr	r3, [sp, #28]
10003a38:	005b      	lsls	r3, r3, #1
10003a3a:	f1c3 0301 	rsb	r3, r3, #1
10003a3e:	b21b      	sxth	r3, r3
10003a40:	9306      	str	r3, [sp, #24]
10003a42:	e758      	b.n	100038f6 <uGUI::DrawRoundFrame(short, short, short, short, short, unsigned long)+0x1fe>
10003a44:	9b09      	ldr	r3, [sp, #36]	@ 0x24
10003a46:	2b00      	cmp	r3, #0
10003a48:	da9d      	bge.n	10003986 <uGUI::DrawRoundFrame(short, short, short, short, short, unsigned long)+0x28e>
10003a4a:	e66f      	b.n	1000372c <uGUI::DrawRoundFrame(short, short, short, short, short, unsigned long)+0x34>
10003a4c:	9b09      	ldr	r3, [sp, #36]	@ 0x24
10003a4e:	2b00      	cmp	r3, #0
10003a50:	f6ff ae6c 	blt.w	1000372c <uGUI::DrawRoundFrame(short, short, short, short, short, unsigned long)+0x34>
10003a54:	2c00      	cmp	r4, #0
10003a56:	f77f ae69 	ble.w	1000372c <uGUI::DrawRoundFrame(short, short, short, short, short, unsigned long)+0x34>
10003a5a:	9b07      	ldr	r3, [sp, #28]
10003a5c:	005b      	lsls	r3, r3, #1
10003a5e:	f1c3 0301 	rsb	r3, r3, #1
10003a62:	b21b      	sxth	r3, r3
10003a64:	9306      	str	r3, [sp, #24]
10003a66:	e78e      	b.n	10003986 <uGUI::DrawRoundFrame(short, short, short, short, short, unsigned long)+0x28e>

10003a68 <uGUI::FillCircle(short, short, short, unsigned long)>:
10003a68:	e92d 4ff0 	stmdb	sp!, {r4, r5, r6, r7, r8, r9, sl, fp, lr}
10003a6c:	b08b      	sub	sp, #44	@ 0x2c
10003a6e:	9c14      	ldr	r4, [sp, #80]	@ 0x50
10003a70:	4699      	mov	r9, r3
10003a72:	ea51 0302 	orrs.w	r3, r1, r2
10003a76:	9404      	str	r4, [sp, #16]
10003a78:	9107      	str	r1, [sp, #28]
10003a7a:	9005      	str	r0, [sp, #20]
10003a7c:	d478      	bmi.n	10003b70 <uGUI::FillCircle(short, short, short, unsigned long)+0x108>
10003a7e:	f1b9 0f00 	cmp.w	r9, #0
10003a82:	dd75      	ble.n	10003b70 <uGUI::FillCircle(short, short, short, unsigned long)+0x108>
10003a84:	2700      	movs	r7, #0
10003a86:	464e      	mov	r6, r9
10003a88:	46bb      	mov	fp, r7
10003a8a:	ea4f 0a49 	mov.w	sl, r9, lsl #1
10003a8e:	e9cd 2908 	strd	r2, r9, [sp, #32]
10003a92:	f1ca 0a03 	rsb	sl, sl, #3
10003a96:	fa0f fa8a 	sxth.w	sl, sl
10003a9a:	b28d      	uxth	r5, r1
10003a9c:	fa1f f882 	uxth.w	r8, r2
10003aa0:	fa1f f986 	uxth.w	r9, r6
10003aa4:	b2bc      	uxth	r4, r7
10003aa6:	eba8 0209 	sub.w	r2, r8, r9
10003aaa:	1b2b      	subs	r3, r5, r4
10003aac:	44c1      	add	r9, r8
10003aae:	2e00      	cmp	r6, #0
10003ab0:	b212      	sxth	r2, r2
10003ab2:	fa0f f989 	sxth.w	r9, r9
10003ab6:	b21b      	sxth	r3, r3
10003ab8:	dd12      	ble.n	10003ae0 <uGUI::FillCircle(short, short, short, unsigned long)+0x78>
10003aba:	9904      	ldr	r1, [sp, #16]
10003abc:	9805      	ldr	r0, [sp, #20]
10003abe:	e9cd 9100 	strd	r9, r1, [sp]
10003ac2:	4619      	mov	r1, r3
10003ac4:	9203      	str	r2, [sp, #12]
10003ac6:	f7ff fc81 	bl	100033cc <uGUI::DrawLine(short, short, short, short, unsigned long)>
10003aca:	e9dd 2103 	ldrd	r2, r1, [sp, #12]
10003ace:	192b      	adds	r3, r5, r4
10003ad0:	b21b      	sxth	r3, r3
10003ad2:	9101      	str	r1, [sp, #4]
10003ad4:	9805      	ldr	r0, [sp, #20]
10003ad6:	4619      	mov	r1, r3
10003ad8:	f8cd 9000 	str.w	r9, [sp]
10003adc:	f7ff fc76 	bl	100033cc <uGUI::DrawLine(short, short, short, short, unsigned long)>
10003ae0:	b2b3      	uxth	r3, r6
10003ae2:	9303      	str	r3, [sp, #12]
10003ae4:	eba8 0204 	sub.w	r2, r8, r4
10003ae8:	1aeb      	subs	r3, r5, r3
10003aea:	eb08 0904 	add.w	r9, r8, r4
10003aee:	f1bb 0f00 	cmp.w	fp, #0
10003af2:	b21b      	sxth	r3, r3
10003af4:	b212      	sxth	r2, r2
10003af6:	fa0f f989 	sxth.w	r9, r9
10003afa:	dd15      	ble.n	10003b28 <uGUI::FillCircle(short, short, short, unsigned long)+0xc0>
10003afc:	9904      	ldr	r1, [sp, #16]
10003afe:	f8dd b014 	ldr.w	fp, [sp, #20]
10003b02:	e9cd 9100 	strd	r9, r1, [sp]
10003b06:	4658      	mov	r0, fp
10003b08:	4619      	mov	r1, r3
10003b0a:	9206      	str	r2, [sp, #24]
10003b0c:	f7ff fc5e 	bl	100033cc <uGUI::DrawLine(short, short, short, short, unsigned long)>
10003b10:	9b03      	ldr	r3, [sp, #12]
10003b12:	9904      	ldr	r1, [sp, #16]
10003b14:	442b      	add	r3, r5
10003b16:	b21b      	sxth	r3, r3
10003b18:	9101      	str	r1, [sp, #4]
10003b1a:	4658      	mov	r0, fp
10003b1c:	4619      	mov	r1, r3
10003b1e:	9a06      	ldr	r2, [sp, #24]
10003b20:	f8cd 9000 	str.w	r9, [sp]
10003b24:	f7ff fc52 	bl	100033cc <uGUI::DrawLine(short, short, short, short, unsigned long)>
10003b28:	b2b3      	uxth	r3, r6
10003b2a:	1ae0      	subs	r0, r4, r3
10003b2c:	1e59      	subs	r1, r3, #1
10003b2e:	fa1f f38a 	uxth.w	r3, sl
10003b32:	f103 020a 	add.w	r2, r3, #10
10003b36:	eb02 0280 	add.w	r2, r2, r0, lsl #2
10003b3a:	3306      	adds	r3, #6
10003b3c:	f1ba 0f00 	cmp.w	sl, #0
10003b40:	eb03 0384 	add.w	r3, r3, r4, lsl #2
10003b44:	fa0f fa82 	sxth.w	sl, r2
10003b48:	db15      	blt.n	10003b76 <uGUI::FillCircle(short, short, short, unsigned long)+0x10e>
10003b4a:	3701      	adds	r7, #1
10003b4c:	b20e      	sxth	r6, r1
10003b4e:	fa0f fb87 	sxth.w	fp, r7
10003b52:	455e      	cmp	r6, fp
10003b54:	daa4      	bge.n	10003aa0 <uGUI::FillCircle(short, short, short, unsigned long)+0x38>
10003b56:	e9dd 4908 	ldrd	r4, r9, [sp, #32]
10003b5a:	4622      	mov	r2, r4
10003b5c:	e9dd 4004 	ldrd	r4, r0, [sp, #16]
10003b60:	464b      	mov	r3, r9
10003b62:	9907      	ldr	r1, [sp, #28]
10003b64:	9414      	str	r4, [sp, #80]	@ 0x50
10003b66:	b00b      	add	sp, #44	@ 0x2c
10003b68:	e8bd 4ff0 	ldmia.w	sp!, {r4, r5, r6, r7, r8, r9, sl, fp, lr}
10003b6c:	f7ff bb06 	b.w	1000317c <uGUI::DrawCircle(short, short, short, unsigned long) [clone .part.0]>
10003b70:	b00b      	add	sp, #44	@ 0x2c
10003b72:	e8bd 8ff0 	ldmia.w	sp!, {r4, r5, r6, r7, r8, r9, sl, fp, pc}
10003b76:	3701      	adds	r7, #1
10003b78:	fa0f fb87 	sxth.w	fp, r7
10003b7c:	45b3      	cmp	fp, r6
10003b7e:	fa0f fa83 	sxth.w	sl, r3
10003b82:	dd8d      	ble.n	10003aa0 <uGUI::FillCircle(short, short, short, unsigned long)+0x38>
10003b84:	e7e7      	b.n	10003b56 <uGUI::FillCircle(short, short, short, unsigned long)+0xee>
10003b86:	bf00      	nop

10003b88 <uGUI::PutChar(char, short, short, unsigned long, unsigned long, bool)>:
10003b88:	e92d 4ff0 	stmdb	sp!, {r4, r5, r6, r7, r8, r9, sl, fp, lr}
10003b8c:	4607      	mov	r7, r0
10003b8e:	b087      	sub	sp, #28
10003b90:	4618      	mov	r0, r3
10003b92:	f1a1 0384 	sub.w	r3, r1, #132	@ 0x84
10003b96:	f8dd 8040 	ldr.w	r8, [sp, #64]	@ 0x40
10003b9a:	f89d 5048 	ldrb.w	r5, [sp, #72]	@ 0x48
10003b9e:	2b38      	cmp	r3, #56	@ 0x38
10003ba0:	d81f      	bhi.n	10003be2 <uGUI::PutChar(char, short, short, unsigned long, unsigned long, bool)+0x5a>
10003ba2:	e8df f003 	tbb	[pc, r3]
10003ba6:	1eb4      	.short	0x1eb4
10003ba8:	1e1e1e1e 	.word	0x1e1e1e1e
10003bac:	1e1e1e1e 	.word	0x1e1e1e1e
10003bb0:	1e1e1e1e 	.word	0x1e1e1e1e
10003bb4:	1e1e1e1e 	.word	0x1e1e1e1e
10003bb8:	1e1e1eb6 	.word	0x1e1e1eb6
10003bbc:	1eb81e1e 	.word	0x1eb81e1e
10003bc0:	1e1e1e1e 	.word	0x1e1e1e1e
10003bc4:	1eba1e1e 	.word	0x1eba1e1e
10003bc8:	1e1e1e1e 	.word	0x1e1e1e1e
10003bcc:	1e1e1e1e 	.word	0x1e1e1e1e
10003bd0:	1e1d1e1e 	.word	0x1e1d1e1e
10003bd4:	bc1e1e1e 	.word	0xbc1e1e1e
10003bd8:	1e1e1ebe 	.word	0x1e1e1ebe
10003bdc:	1e1e      	.short	0x1e1e
10003bde:	b2          	.byte	0xb2
10003bdf:	00          	.byte	0x00
10003be0:	21f8      	movs	r1, #248	@ 0xf8
10003be2:	f9b7 3034 	ldrsh.w	r3, [r7, #52]	@ 0x34
10003be6:	b29c      	uxth	r4, r3
10003be8:	2c00      	cmp	r4, #0
10003bea:	d050      	beq.n	10003c8e <uGUI::PutChar(char, short, short, unsigned long, unsigned long, bool)+0x106>
10003bec:	075e      	lsls	r6, r3, #29
10003bee:	f9b7 6036 	ldrsh.w	r6, [r7, #54]	@ 0x36
10003bf2:	ea4f 09d4 	mov.w	r9, r4, lsr #3
10003bf6:	fb11 f106 	smulbb	r1, r1, r6
10003bfa:	6b3b      	ldr	r3, [r7, #48]	@ 0x30
10003bfc:	bf18      	it	ne
10003bfe:	f109 0901 	addne.w	r9, r9, #1
10003c02:	2e00      	cmp	r6, #0
10003c04:	fb09 3301 	mla	r3, r9, r1, r3
10003c08:	dd41      	ble.n	10003c8e <uGUI::PutChar(char, short, short, unsigned long, unsigned long, bool)+0x106>
10003c0a:	b281      	uxth	r1, r0
10003c0c:	b292      	uxth	r2, r2
10003c0e:	9102      	str	r1, [sp, #8]
10003c10:	9203      	str	r2, [sp, #12]
10003c12:	2d00      	cmp	r5, #0
10003c14:	d13e      	bne.n	10003c94 <uGUI::PutChar(char, short, short, unsigned long, unsigned long, bool)+0x10c>
10003c16:	462a      	mov	r2, r5
10003c18:	f8cd 9014 	str.w	r9, [sp, #20]
10003c1c:	4618      	mov	r0, r3
10003c1e:	e9dd 1b02 	ldrd	r1, fp, [sp, #8]
10003c22:	46b9      	mov	r9, r7
10003c24:	4607      	mov	r7, r0
10003c26:	eb01 0a02 	add.w	sl, r1, r2
10003c2a:	9905      	ldr	r1, [sp, #20]
10003c2c:	fa1f fa8a 	uxth.w	sl, sl
10003c30:	440b      	add	r3, r1
10003c32:	9301      	str	r3, [sp, #4]
10003c34:	9204      	str	r2, [sp, #16]
10003c36:	f817 5b01 	ldrb.w	r5, [r7], #1
10003c3a:	f10b 0608 	add.w	r6, fp, #8
10003c3e:	b2b6      	uxth	r6, r6
10003c40:	9700      	str	r7, [sp, #0]
10003c42:	b19c      	cbz	r4, 10003c6c <uGUI::PutChar(char, short, short, unsigned long, unsigned long, bool)+0xe4>
10003c44:	07ea      	lsls	r2, r5, #31
10003c46:	d507      	bpl.n	10003c58 <uGUI::PutChar(char, short, short, unsigned long, unsigned long, bool)+0xd0>
10003c48:	f8d9 0000 	ldr.w	r0, [r9]
10003c4c:	4643      	mov	r3, r8
10003c4e:	6807      	ldr	r7, [r0, #0]
10003c50:	4652      	mov	r2, sl
10003c52:	4659      	mov	r1, fp
10003c54:	68bf      	ldr	r7, [r7, #8]
10003c56:	47b8      	blx	r7
10003c58:	f10b 0101 	add.w	r1, fp, #1
10003c5c:	fa1f fb81 	uxth.w	fp, r1
10003c60:	3c01      	subs	r4, #1
10003c62:	455e      	cmp	r6, fp
10003c64:	ea4f 0555 	mov.w	r5, r5, lsr #1
10003c68:	b2a4      	uxth	r4, r4
10003c6a:	d1ea      	bne.n	10003c42 <uGUI::PutChar(char, short, short, unsigned long, unsigned long, bool)+0xba>
10003c6c:	e9dd 7300 	ldrd	r7, r3, [sp]
10003c70:	429f      	cmp	r7, r3
10003c72:	d1e0      	bne.n	10003c36 <uGUI::PutChar(char, short, short, unsigned long, unsigned long, bool)+0xae>
10003c74:	4638      	mov	r0, r7
10003c76:	9a04      	ldr	r2, [sp, #16]
10003c78:	f9b9 1036 	ldrsh.w	r1, [r9, #54]	@ 0x36
10003c7c:	3201      	adds	r2, #1
10003c7e:	4291      	cmp	r1, r2
10003c80:	464f      	mov	r7, r9
10003c82:	4603      	mov	r3, r0
10003c84:	dd03      	ble.n	10003c8e <uGUI::PutChar(char, short, short, unsigned long, unsigned long, bool)+0x106>
10003c86:	f9b9 4034 	ldrsh.w	r4, [r9, #52]	@ 0x34
10003c8a:	b2a4      	uxth	r4, r4
10003c8c:	e7c6      	b.n	10003c1c <uGUI::PutChar(char, short, short, unsigned long, unsigned long, bool)+0x94>
10003c8e:	b007      	add	sp, #28
10003c90:	e8bd 8ff0 	ldmia.w	sp!, {r4, r5, r6, r7, r8, r9, sl, fp, pc}
10003c94:	2500      	movs	r5, #0
10003c96:	46ba      	mov	sl, r7
10003c98:	f8cd 9014 	str.w	r9, [sp, #20]
10003c9c:	461f      	mov	r7, r3
10003c9e:	9a02      	ldr	r2, [sp, #8]
10003ca0:	f8dd b00c 	ldr.w	fp, [sp, #12]
10003ca4:	eb02 0905 	add.w	r9, r2, r5
10003ca8:	9a05      	ldr	r2, [sp, #20]
10003caa:	fa1f f989 	uxth.w	r9, r9
10003cae:	189a      	adds	r2, r3, r2
10003cb0:	9201      	str	r2, [sp, #4]
10003cb2:	9504      	str	r5, [sp, #16]
10003cb4:	f817 5b01 	ldrb.w	r5, [r7], #1
10003cb8:	f10b 0608 	add.w	r6, fp, #8
10003cbc:	b2b6      	uxth	r6, r6
10003cbe:	9700      	str	r7, [sp, #0]
10003cc0:	b1a4      	cbz	r4, 10003cec <uGUI::PutChar(char, short, short, unsigned long, unsigned long, bool)+0x164>
10003cc2:	f8da 0000 	ldr.w	r0, [sl]
10003cc6:	07eb      	lsls	r3, r5, #31
10003cc8:	6807      	ldr	r7, [r0, #0]
10003cca:	4659      	mov	r1, fp
10003ccc:	bf4c      	ite	mi
10003cce:	4643      	movmi	r3, r8
10003cd0:	9b11      	ldrpl	r3, [sp, #68]	@ 0x44
10003cd2:	464a      	mov	r2, r9
10003cd4:	68bf      	ldr	r7, [r7, #8]
10003cd6:	47b8      	blx	r7
10003cd8:	f10b 0101 	add.w	r1, fp, #1
10003cdc:	fa1f fb81 	uxth.w	fp, r1
10003ce0:	3c01      	subs	r4, #1
10003ce2:	45b3      	cmp	fp, r6
10003ce4:	ea4f 0555 	mov.w	r5, r5, lsr #1
10003ce8:	b2a4      	uxth	r4, r4
10003cea:	d1e9      	bne.n	10003cc0 <uGUI::PutChar(char, short, short, unsigned long, unsigned long, bool)+0x138>
10003cec:	e9dd 7300 	ldrd	r7, r3, [sp]
10003cf0:	429f      	cmp	r7, r3
10003cf2:	d1df      	bne.n	10003cb4 <uGUI::PutChar(char, short, short, unsigned long, unsigned long, bool)+0x12c>
10003cf4:	9d04      	ldr	r5, [sp, #16]
10003cf6:	f9ba 2036 	ldrsh.w	r2, [sl, #54]	@ 0x36
10003cfa:	3501      	adds	r5, #1
10003cfc:	42aa      	cmp	r2, r5
10003cfe:	463b      	mov	r3, r7
10003d00:	ddc5      	ble.n	10003c8e <uGUI::PutChar(char, short, short, unsigned long, unsigned long, bool)+0x106>
10003d02:	f9ba 4034 	ldrsh.w	r4, [sl, #52]	@ 0x34
10003d06:	b2a4      	uxth	r4, r4
10003d08:	e7c8      	b.n	10003c9c <uGUI::PutChar(char, short, short, unsigned long, unsigned long, bool)+0x114>
10003d0a:	2181      	movs	r1, #129	@ 0x81
10003d0c:	e769      	b.n	10003be2 <uGUI::PutChar(char, short, short, unsigned long, unsigned long, bool)+0x5a>
10003d0e:	218e      	movs	r1, #142	@ 0x8e
10003d10:	e767      	b.n	10003be2 <uGUI::PutChar(char, short, short, unsigned long, unsigned long, bool)+0x5a>
10003d12:	2199      	movs	r1, #153	@ 0x99
10003d14:	e765      	b.n	10003be2 <uGUI::PutChar(char, short, short, unsigned long, unsigned long, bool)+0x5a>
10003d16:	219a      	movs	r1, #154	@ 0x9a
10003d18:	e763      	b.n	10003be2 <uGUI::PutChar(char, short, short, unsigned long, unsigned long, bool)+0x5a>
10003d1a:	2184      	movs	r1, #132	@ 0x84
10003d1c:	e761      	b.n	10003be2 <uGUI::PutChar(char, short, short, unsigned long, unsigned long, bool)+0x5a>
10003d1e:	21e6      	movs	r1, #230	@ 0xe6
10003d20:	e75f      	b.n	10003be2 <uGUI::PutChar(char, short, short, unsigned long, unsigned long, bool)+0x5a>
10003d22:	2194      	movs	r1, #148	@ 0x94
10003d24:	e75d      	b.n	10003be2 <uGUI::PutChar(char, short, short, unsigned long, unsigned long, bool)+0x5a>
10003d26:	bf00      	nop

10003d28 <uGUI::PutString(short, short, char const*, bool)>:
10003d28:	e92d 43f0 	stmdb	sp!, {r4, r5, r6, r7, r8, r9, lr}
10003d2c:	460f      	mov	r7, r1
10003d2e:	7819      	ldrb	r1, [r3, #0]
10003d30:	b085      	sub	sp, #20
10003d32:	f89d 8030 	ldrb.w	r8, [sp, #48]	@ 0x30
10003d36:	b399      	cbz	r1, 10003da0 <uGUI::PutString(short, short, char const*, bool)+0x78>
10003d38:	461e      	mov	r6, r3
10003d3a:	4604      	mov	r4, r0
10003d3c:	4691      	mov	r9, r2
10003d3e:	463d      	mov	r5, r7
10003d40:	e023      	b.n	10003d8a <uGUI::PutString(short, short, char const*, bool)+0x62>
10003d42:	2801      	cmp	r0, #1
10003d44:	d91e      	bls.n	10003d84 <uGUI::PutString(short, short, char const*, bool)+0x5c>
10003d46:	f9b4 3034 	ldrsh.w	r3, [r4, #52]	@ 0x34
10003d4a:	f9b4 2004 	ldrsh.w	r2, [r4, #4]
10003d4e:	442b      	add	r3, r5
10003d50:	429a      	cmp	r2, r3
10003d52:	4620      	mov	r0, r4
10003d54:	dc07      	bgt.n	10003d66 <uGUI::PutString(short, short, char const*, bool)+0x3e>
10003d56:	463d      	mov	r5, r7
10003d58:	f994 3039 	ldrsb.w	r3, [r4, #57]	@ 0x39
10003d5c:	8ee2      	ldrh	r2, [r4, #54]	@ 0x36
10003d5e:	4413      	add	r3, r2
10003d60:	444b      	add	r3, r9
10003d62:	fa0f f983 	sxth.w	r9, r3
10003d66:	e9d4 2c0f 	ldrd	r2, ip, [r4, #60]	@ 0x3c
10003d6a:	464b      	mov	r3, r9
10003d6c:	9200      	str	r2, [sp, #0]
10003d6e:	e9cd c801 	strd	ip, r8, [sp, #4]
10003d72:	462a      	mov	r2, r5
10003d74:	f7ff ff08 	bl	10003b88 <uGUI::PutChar(char, short, short, unsigned long, unsigned long, bool)>
10003d78:	f994 3038 	ldrsb.w	r3, [r4, #56]	@ 0x38
10003d7c:	8ea2      	ldrh	r2, [r4, #52]	@ 0x34
10003d7e:	4413      	add	r3, r2
10003d80:	442b      	add	r3, r5
10003d82:	b21d      	sxth	r5, r3
10003d84:	f816 1f01 	ldrb.w	r1, [r6, #1]!
10003d88:	b151      	cbz	r1, 10003da0 <uGUI::PutString(short, short, char const*, bool)+0x78>
10003d8a:	f101 003e 	add.w	r0, r1, #62	@ 0x3e
10003d8e:	290a      	cmp	r1, #10
10003d90:	b2c0      	uxtb	r0, r0
10003d92:	d1d6      	bne.n	10003d42 <uGUI::PutString(short, short, char const*, bool)+0x1a>
10003d94:	f816 1f01 	ldrb.w	r1, [r6, #1]!
10003d98:	f9b4 5004 	ldrsh.w	r5, [r4, #4]
10003d9c:	2900      	cmp	r1, #0
10003d9e:	d1f4      	bne.n	10003d8a <uGUI::PutString(short, short, char const*, bool)+0x62>
10003da0:	b005      	add	sp, #20
10003da2:	e8bd 83f0 	ldmia.w	sp!, {r4, r5, r6, r7, r8, r9, pc}
10003da6:	bf00      	nop

10003da8 <uGUI::SetForecolor(unsigned long)>:
10003da8:	63c1      	str	r1, [r0, #60]	@ 0x3c
10003daa:	4770      	bx	lr

10003dac <uGUI::SetBackcolor(unsigned long)>:
10003dac:	6401      	str	r1, [r0, #64]	@ 0x40
10003dae:	4770      	bx	lr

10003db0 <__aeabi_atexit>:
10003db0:	460b      	mov	r3, r1
10003db2:	4601      	mov	r1, r0
10003db4:	4618      	mov	r0, r3
10003db6:	f000 bb33 	b.w	10004420 <__cxa_atexit>

10003dba <operator delete(void*, unsigned int)>:
10003dba:	f000 b804 	b.w	10003dc6 <operator delete(void*)>

10003dbe <operator delete[](void*)>:
10003dbe:	f000 b802 	b.w	10003dc6 <operator delete(void*)>

10003dc2 <operator new[](unsigned int)>:
10003dc2:	f000 b802 	b.w	10003dca <operator new(unsigned int)>

10003dc6 <operator delete(void*)>:
10003dc6:	f000 b9df 	b.w	10004188 <free>

10003dca <operator new(unsigned int)>:
10003dca:	2801      	cmp	r0, #1
10003dcc:	bf38      	it	cc
10003dce:	2001      	movcc	r0, #1
10003dd0:	b510      	push	{r4, lr}
10003dd2:	4604      	mov	r4, r0
10003dd4:	4620      	mov	r0, r4
10003dd6:	f000 f9cf 	bl	10004178 <malloc>
10003dda:	b100      	cbz	r0, 10003dde <operator new(unsigned int)+0x14>
10003ddc:	bd10      	pop	{r4, pc}
10003dde:	f000 f805 	bl	10003dec <std::get_new_handler()>
10003de2:	b908      	cbnz	r0, 10003de8 <operator new(unsigned int)+0x1e>
10003de4:	f000 f9ae 	bl	10004144 <abort>
10003de8:	4780      	blx	r0
10003dea:	e7f3      	b.n	10003dd4 <operator new(unsigned int)+0xa>

10003dec <std::get_new_handler()>:
10003dec:	4b01      	ldr	r3, [pc, #4]	@ (10003df4 <std::get_new_handler()+0x8>)
10003dee:	e8d3 0faf 	lda	r0, [r3]
10003df2:	4770      	bx	lr
10003df4:	200004c0 	.word	0x200004c0

10003df8 <__udivmoddi4>:
10003df8:	e92d 4ff0 	stmdb	sp!, {r4, r5, r6, r7, r8, r9, sl, fp, lr}
10003dfc:	468c      	mov	ip, r1
10003dfe:	9e09      	ldr	r6, [sp, #36]	@ 0x24
10003e00:	4604      	mov	r4, r0
10003e02:	460f      	mov	r7, r1
10003e04:	2b00      	cmp	r3, #0
10003e06:	d148      	bne.n	10003e9a <__udivmoddi4+0xa2>
10003e08:	428a      	cmp	r2, r1
10003e0a:	4615      	mov	r5, r2
10003e0c:	d95e      	bls.n	10003ecc <__udivmoddi4+0xd4>
10003e0e:	fab2 f382 	clz	r3, r2
10003e12:	b13b      	cbz	r3, 10003e24 <__udivmoddi4+0x2c>
10003e14:	f1c3 0220 	rsb	r2, r3, #32
10003e18:	409f      	lsls	r7, r3
10003e1a:	409d      	lsls	r5, r3
10003e1c:	409c      	lsls	r4, r3
10003e1e:	fa20 f202 	lsr.w	r2, r0, r2
10003e22:	4317      	orrs	r7, r2
10003e24:	ea4f 4e15 	mov.w	lr, r5, lsr #16
10003e28:	fa1f fc85 	uxth.w	ip, r5
10003e2c:	0c22      	lsrs	r2, r4, #16
10003e2e:	fbb7 f1fe 	udiv	r1, r7, lr
10003e32:	fb0e 7711 	mls	r7, lr, r1, r7
10003e36:	fb01 f00c 	mul.w	r0, r1, ip
10003e3a:	ea42 4207 	orr.w	r2, r2, r7, lsl #16
10003e3e:	4290      	cmp	r0, r2
10003e40:	d907      	bls.n	10003e52 <__udivmoddi4+0x5a>
10003e42:	18aa      	adds	r2, r5, r2
10003e44:	f101 37ff 	add.w	r7, r1, #4294967295	@ 0xffffffff
10003e48:	d202      	bcs.n	10003e50 <__udivmoddi4+0x58>
10003e4a:	4290      	cmp	r0, r2
10003e4c:	f200 8158 	bhi.w	10004100 <__udivmoddi4+0x308>
10003e50:	4639      	mov	r1, r7
10003e52:	1a12      	subs	r2, r2, r0
10003e54:	b2a4      	uxth	r4, r4
10003e56:	fbb2 f0fe 	udiv	r0, r2, lr
10003e5a:	fb0e 2210 	mls	r2, lr, r0, r2
10003e5e:	fb00 fc0c 	mul.w	ip, r0, ip
10003e62:	ea44 4402 	orr.w	r4, r4, r2, lsl #16
10003e66:	45a4      	cmp	ip, r4
10003e68:	d90b      	bls.n	10003e82 <__udivmoddi4+0x8a>
10003e6a:	192c      	adds	r4, r5, r4
10003e6c:	f100 32ff 	add.w	r2, r0, #4294967295	@ 0xffffffff
10003e70:	bf2c      	ite	cs
10003e72:	2701      	movcs	r7, #1
10003e74:	2700      	movcc	r7, #0
10003e76:	45a4      	cmp	ip, r4
10003e78:	d902      	bls.n	10003e80 <__udivmoddi4+0x88>
10003e7a:	2f00      	cmp	r7, #0
10003e7c:	f000 8143 	beq.w	10004106 <__udivmoddi4+0x30e>
10003e80:	4610      	mov	r0, r2
10003e82:	ea40 4001 	orr.w	r0, r0, r1, lsl #16
10003e86:	eba4 040c 	sub.w	r4, r4, ip
10003e8a:	2100      	movs	r1, #0
10003e8c:	b11e      	cbz	r6, 10003e96 <__udivmoddi4+0x9e>
10003e8e:	40dc      	lsrs	r4, r3
10003e90:	2300      	movs	r3, #0
10003e92:	e9c6 4300 	strd	r4, r3, [r6]
10003e96:	e8bd 8ff0 	ldmia.w	sp!, {r4, r5, r6, r7, r8, r9, sl, fp, pc}
10003e9a:	428b      	cmp	r3, r1
10003e9c:	d906      	bls.n	10003eac <__udivmoddi4+0xb4>
10003e9e:	b10e      	cbz	r6, 10003ea4 <__udivmoddi4+0xac>
10003ea0:	e9c6 0100 	strd	r0, r1, [r6]
10003ea4:	2100      	movs	r1, #0
10003ea6:	4608      	mov	r0, r1
10003ea8:	e8bd 8ff0 	ldmia.w	sp!, {r4, r5, r6, r7, r8, r9, sl, fp, pc}
10003eac:	fab3 f183 	clz	r1, r3
10003eb0:	2900      	cmp	r1, #0
10003eb2:	d151      	bne.n	10003f58 <__udivmoddi4+0x160>
10003eb4:	4563      	cmp	r3, ip
10003eb6:	f0c0 8116 	bcc.w	100040e6 <__udivmoddi4+0x2ee>
10003eba:	4282      	cmp	r2, r0
10003ebc:	f240 8113 	bls.w	100040e6 <__udivmoddi4+0x2ee>
10003ec0:	4608      	mov	r0, r1
10003ec2:	2e00      	cmp	r6, #0
10003ec4:	d0e7      	beq.n	10003e96 <__udivmoddi4+0x9e>
10003ec6:	e9c6 4700 	strd	r4, r7, [r6]
10003eca:	e7e4      	b.n	10003e96 <__udivmoddi4+0x9e>
10003ecc:	2a00      	cmp	r2, #0
10003ece:	f000 80af 	beq.w	10004030 <__udivmoddi4+0x238>
10003ed2:	fab2 f382 	clz	r3, r2
10003ed6:	2b00      	cmp	r3, #0
10003ed8:	f040 80c2 	bne.w	10004060 <__udivmoddi4+0x268>
10003edc:	1a8a      	subs	r2, r1, r2
10003ede:	ea4f 4e15 	mov.w	lr, r5, lsr #16
10003ee2:	b2af      	uxth	r7, r5
10003ee4:	2101      	movs	r1, #1
10003ee6:	0c20      	lsrs	r0, r4, #16
10003ee8:	fbb2 fcfe 	udiv	ip, r2, lr
10003eec:	fb0e 221c 	mls	r2, lr, ip, r2
10003ef0:	ea40 4202 	orr.w	r2, r0, r2, lsl #16
10003ef4:	fb07 f00c 	mul.w	r0, r7, ip
10003ef8:	4290      	cmp	r0, r2
10003efa:	d90e      	bls.n	10003f1a <__udivmoddi4+0x122>
10003efc:	18aa      	adds	r2, r5, r2
10003efe:	f10c 38ff 	add.w	r8, ip, #4294967295	@ 0xffffffff
10003f02:	bf2c      	ite	cs
10003f04:	f04f 0901 	movcs.w	r9, #1
10003f08:	f04f 0900 	movcc.w	r9, #0
10003f0c:	4290      	cmp	r0, r2
10003f0e:	d903      	bls.n	10003f18 <__udivmoddi4+0x120>
10003f10:	f1b9 0f00 	cmp.w	r9, #0
10003f14:	f000 80f0 	beq.w	100040f8 <__udivmoddi4+0x300>
10003f18:	46c4      	mov	ip, r8
10003f1a:	1a12      	subs	r2, r2, r0
10003f1c:	b2a4      	uxth	r4, r4
10003f1e:	fbb2 f0fe 	udiv	r0, r2, lr
10003f22:	fb0e 2210 	mls	r2, lr, r0, r2
10003f26:	fb00 f707 	mul.w	r7, r0, r7
10003f2a:	ea44 4402 	orr.w	r4, r4, r2, lsl #16
10003f2e:	42a7      	cmp	r7, r4
10003f30:	d90e      	bls.n	10003f50 <__udivmoddi4+0x158>
10003f32:	192c      	adds	r4, r5, r4
10003f34:	f100 32ff 	add.w	r2, r0, #4294967295	@ 0xffffffff
10003f38:	bf2c      	ite	cs
10003f3a:	f04f 0e01 	movcs.w	lr, #1
10003f3e:	f04f 0e00 	movcc.w	lr, #0
10003f42:	42a7      	cmp	r7, r4
10003f44:	d903      	bls.n	10003f4e <__udivmoddi4+0x156>
10003f46:	f1be 0f00 	cmp.w	lr, #0
10003f4a:	f000 80d2 	beq.w	100040f2 <__udivmoddi4+0x2fa>
10003f4e:	4610      	mov	r0, r2
10003f50:	1be4      	subs	r4, r4, r7
10003f52:	ea40 400c 	orr.w	r0, r0, ip, lsl #16
10003f56:	e799      	b.n	10003e8c <__udivmoddi4+0x94>
10003f58:	f1c1 0520 	rsb	r5, r1, #32
10003f5c:	408b      	lsls	r3, r1
10003f5e:	fa0c f401 	lsl.w	r4, ip, r1
10003f62:	fa00 f901 	lsl.w	r9, r0, r1
10003f66:	fa22 f705 	lsr.w	r7, r2, r5
10003f6a:	fa2c fc05 	lsr.w	ip, ip, r5
10003f6e:	408a      	lsls	r2, r1
10003f70:	431f      	orrs	r7, r3
10003f72:	fa20 f305 	lsr.w	r3, r0, r5
10003f76:	0c38      	lsrs	r0, r7, #16
10003f78:	4323      	orrs	r3, r4
10003f7a:	fa1f fe87 	uxth.w	lr, r7
10003f7e:	0c1c      	lsrs	r4, r3, #16
10003f80:	fbbc f8f0 	udiv	r8, ip, r0
10003f84:	fb00 cc18 	mls	ip, r0, r8, ip
10003f88:	ea44 440c 	orr.w	r4, r4, ip, lsl #16
10003f8c:	fb08 fc0e 	mul.w	ip, r8, lr
10003f90:	45a4      	cmp	ip, r4
10003f92:	d90e      	bls.n	10003fb2 <__udivmoddi4+0x1ba>
10003f94:	193c      	adds	r4, r7, r4
10003f96:	f108 3aff 	add.w	sl, r8, #4294967295	@ 0xffffffff
10003f9a:	bf2c      	ite	cs
10003f9c:	f04f 0b01 	movcs.w	fp, #1
10003fa0:	f04f 0b00 	movcc.w	fp, #0
10003fa4:	45a4      	cmp	ip, r4
10003fa6:	d903      	bls.n	10003fb0 <__udivmoddi4+0x1b8>
10003fa8:	f1bb 0f00 	cmp.w	fp, #0
10003fac:	f000 80b8 	beq.w	10004120 <__udivmoddi4+0x328>
10003fb0:	46d0      	mov	r8, sl
10003fb2:	eba4 040c 	sub.w	r4, r4, ip
10003fb6:	fa1f fc83 	uxth.w	ip, r3
10003fba:	fbb4 f3f0 	udiv	r3, r4, r0
10003fbe:	fb00 4413 	mls	r4, r0, r3, r4
10003fc2:	fb03 fe0e 	mul.w	lr, r3, lr
10003fc6:	ea4c 4404 	orr.w	r4, ip, r4, lsl #16
10003fca:	45a6      	cmp	lr, r4
10003fcc:	d90e      	bls.n	10003fec <__udivmoddi4+0x1f4>
10003fce:	193c      	adds	r4, r7, r4
10003fd0:	f103 30ff 	add.w	r0, r3, #4294967295	@ 0xffffffff
10003fd4:	bf2c      	ite	cs
10003fd6:	f04f 0c01 	movcs.w	ip, #1
10003fda:	f04f 0c00 	movcc.w	ip, #0
10003fde:	45a6      	cmp	lr, r4
10003fe0:	d903      	bls.n	10003fea <__udivmoddi4+0x1f2>
10003fe2:	f1bc 0f00 	cmp.w	ip, #0
10003fe6:	f000 809f 	beq.w	10004128 <__udivmoddi4+0x330>
10003fea:	4603      	mov	r3, r0
10003fec:	ea43 4008 	orr.w	r0, r3, r8, lsl #16
10003ff0:	eba4 040e 	sub.w	r4, r4, lr
10003ff4:	fba0 ec02 	umull	lr, ip, r0, r2
10003ff8:	4564      	cmp	r4, ip
10003ffa:	4673      	mov	r3, lr
10003ffc:	46e0      	mov	r8, ip
10003ffe:	d302      	bcc.n	10004006 <__udivmoddi4+0x20e>
10004000:	d107      	bne.n	10004012 <__udivmoddi4+0x21a>
10004002:	45f1      	cmp	r9, lr
10004004:	d205      	bcs.n	10004012 <__udivmoddi4+0x21a>
10004006:	ebbe 0302 	subs.w	r3, lr, r2
1000400a:	eb6c 0c07 	sbc.w	ip, ip, r7
1000400e:	3801      	subs	r0, #1
10004010:	46e0      	mov	r8, ip
10004012:	b15e      	cbz	r6, 1000402c <__udivmoddi4+0x234>
10004014:	ebb9 0203 	subs.w	r2, r9, r3
10004018:	eb64 0408 	sbc.w	r4, r4, r8
1000401c:	fa04 f505 	lsl.w	r5, r4, r5
10004020:	fa22 f301 	lsr.w	r3, r2, r1
10004024:	40cc      	lsrs	r4, r1
10004026:	431d      	orrs	r5, r3
10004028:	e9c6 5400 	strd	r5, r4, [r6]
1000402c:	2100      	movs	r1, #0
1000402e:	e732      	b.n	10003e96 <__udivmoddi4+0x9e>
10004030:	0842      	lsrs	r2, r0, #1
10004032:	462f      	mov	r7, r5
10004034:	084b      	lsrs	r3, r1, #1
10004036:	46ac      	mov	ip, r5
10004038:	ea42 72c1 	orr.w	r2, r2, r1, lsl #31
1000403c:	46ae      	mov	lr, r5
1000403e:	07c4      	lsls	r4, r0, #31
10004040:	0c11      	lsrs	r1, r2, #16
10004042:	b292      	uxth	r2, r2
10004044:	ea41 4103 	orr.w	r1, r1, r3, lsl #16
10004048:	ea42 4201 	orr.w	r2, r2, r1, lsl #16
1000404c:	fbb1 f1f5 	udiv	r1, r1, r5
10004050:	fbb3 f0f5 	udiv	r0, r3, r5
10004054:	231f      	movs	r3, #31
10004056:	eba2 020c 	sub.w	r2, r2, ip
1000405a:	ea41 4100 	orr.w	r1, r1, r0, lsl #16
1000405e:	e742      	b.n	10003ee6 <__udivmoddi4+0xee>
10004060:	409d      	lsls	r5, r3
10004062:	f1c3 0220 	rsb	r2, r3, #32
10004066:	4099      	lsls	r1, r3
10004068:	409c      	lsls	r4, r3
1000406a:	fa2c fc02 	lsr.w	ip, ip, r2
1000406e:	ea4f 4e15 	mov.w	lr, r5, lsr #16
10004072:	fa20 f202 	lsr.w	r2, r0, r2
10004076:	b2af      	uxth	r7, r5
10004078:	fbbc f8fe 	udiv	r8, ip, lr
1000407c:	430a      	orrs	r2, r1
1000407e:	fb0e cc18 	mls	ip, lr, r8, ip
10004082:	0c11      	lsrs	r1, r2, #16
10004084:	ea41 410c 	orr.w	r1, r1, ip, lsl #16
10004088:	fb08 fc07 	mul.w	ip, r8, r7
1000408c:	458c      	cmp	ip, r1
1000408e:	d950      	bls.n	10004132 <__udivmoddi4+0x33a>
10004090:	1869      	adds	r1, r5, r1
10004092:	f108 30ff 	add.w	r0, r8, #4294967295	@ 0xffffffff
10004096:	bf2c      	ite	cs
10004098:	f04f 0901 	movcs.w	r9, #1
1000409c:	f04f 0900 	movcc.w	r9, #0
100040a0:	458c      	cmp	ip, r1
100040a2:	d902      	bls.n	100040aa <__udivmoddi4+0x2b2>
100040a4:	f1b9 0f00 	cmp.w	r9, #0
100040a8:	d030      	beq.n	1000410c <__udivmoddi4+0x314>
100040aa:	eba1 010c 	sub.w	r1, r1, ip
100040ae:	fbb1 f8fe 	udiv	r8, r1, lr
100040b2:	fb08 fc07 	mul.w	ip, r8, r7
100040b6:	fb0e 1118 	mls	r1, lr, r8, r1
100040ba:	b292      	uxth	r2, r2
100040bc:	ea42 4201 	orr.w	r2, r2, r1, lsl #16
100040c0:	4562      	cmp	r2, ip
100040c2:	d234      	bcs.n	1000412e <__udivmoddi4+0x336>
100040c4:	18aa      	adds	r2, r5, r2
100040c6:	f108 31ff 	add.w	r1, r8, #4294967295	@ 0xffffffff
100040ca:	bf2c      	ite	cs
100040cc:	f04f 0901 	movcs.w	r9, #1
100040d0:	f04f 0900 	movcc.w	r9, #0
100040d4:	4562      	cmp	r2, ip
100040d6:	d2be      	bcs.n	10004056 <__udivmoddi4+0x25e>
100040d8:	f1b9 0f00 	cmp.w	r9, #0
100040dc:	d1bb      	bne.n	10004056 <__udivmoddi4+0x25e>
100040de:	f1a8 0102 	sub.w	r1, r8, #2
100040e2:	442a      	add	r2, r5
100040e4:	e7b7      	b.n	10004056 <__udivmoddi4+0x25e>
100040e6:	1a84      	subs	r4, r0, r2
100040e8:	eb6c 0203 	sbc.w	r2, ip, r3
100040ec:	2001      	movs	r0, #1
100040ee:	4617      	mov	r7, r2
100040f0:	e6e7      	b.n	10003ec2 <__udivmoddi4+0xca>
100040f2:	442c      	add	r4, r5
100040f4:	3802      	subs	r0, #2
100040f6:	e72b      	b.n	10003f50 <__udivmoddi4+0x158>
100040f8:	f1ac 0c02 	sub.w	ip, ip, #2
100040fc:	442a      	add	r2, r5
100040fe:	e70c      	b.n	10003f1a <__udivmoddi4+0x122>
10004100:	3902      	subs	r1, #2
10004102:	442a      	add	r2, r5
10004104:	e6a5      	b.n	10003e52 <__udivmoddi4+0x5a>
10004106:	442c      	add	r4, r5
10004108:	3802      	subs	r0, #2
1000410a:	e6ba      	b.n	10003e82 <__udivmoddi4+0x8a>
1000410c:	eba5 0c0c 	sub.w	ip, r5, ip
10004110:	f1a8 0002 	sub.w	r0, r8, #2
10004114:	4461      	add	r1, ip
10004116:	fbb1 f8fe 	udiv	r8, r1, lr
1000411a:	fb08 fc07 	mul.w	ip, r8, r7
1000411e:	e7ca      	b.n	100040b6 <__udivmoddi4+0x2be>
10004120:	f1a8 0802 	sub.w	r8, r8, #2
10004124:	443c      	add	r4, r7
10004126:	e744      	b.n	10003fb2 <__udivmoddi4+0x1ba>
10004128:	3b02      	subs	r3, #2
1000412a:	443c      	add	r4, r7
1000412c:	e75e      	b.n	10003fec <__udivmoddi4+0x1f4>
1000412e:	4641      	mov	r1, r8
10004130:	e791      	b.n	10004056 <__udivmoddi4+0x25e>
10004132:	eba1 010c 	sub.w	r1, r1, ip
10004136:	4640      	mov	r0, r8
10004138:	fbb1 f8fe 	udiv	r8, r1, lr
1000413c:	fb08 fc07 	mul.w	ip, r8, r7
10004140:	e7b9      	b.n	100040b6 <__udivmoddi4+0x2be>
10004142:	bf00      	nop

10004144 <abort>:
10004144:	2006      	movs	r0, #6
10004146:	b508      	push	{r3, lr}
10004148:	f000 f918 	bl	1000437c <raise>
1000414c:	2001      	movs	r0, #1
1000414e:	f000 f9cf 	bl	100044f0 <_exit>
	...

10004154 <exit>:
10004154:	b508      	push	{r3, lr}
10004156:	4b06      	ldr	r3, [pc, #24]	@ (10004170 <exit+0x1c>)
10004158:	4604      	mov	r4, r0
1000415a:	b113      	cbz	r3, 10004162 <exit+0xe>
1000415c:	2100      	movs	r1, #0
1000415e:	f3af 8000 	nop.w
10004162:	4b04      	ldr	r3, [pc, #16]	@ (10004174 <exit+0x20>)
10004164:	681b      	ldr	r3, [r3, #0]
10004166:	b103      	cbz	r3, 1000416a <exit+0x16>
10004168:	4798      	blx	r3
1000416a:	4620      	mov	r0, r4
1000416c:	f000 f9c0 	bl	100044f0 <_exit>
10004170:	00000000 	.word	0x00000000
10004174:	20000614 	.word	0x20000614

10004178 <malloc>:
10004178:	4b02      	ldr	r3, [pc, #8]	@ (10004184 <malloc+0xc>)
1000417a:	4601      	mov	r1, r0
1000417c:	6818      	ldr	r0, [r3, #0]
1000417e:	f000 b82d 	b.w	100041dc <_malloc_r>
10004182:	bf00      	nop
10004184:	20000010 	.word	0x20000010

10004188 <free>:
10004188:	4b02      	ldr	r3, [pc, #8]	@ (10004194 <free+0xc>)
1000418a:	4601      	mov	r1, r0
1000418c:	6818      	ldr	r0, [r3, #0]
1000418e:	f000 b955 	b.w	1000443c <_free_r>
10004192:	bf00      	nop
10004194:	20000010 	.word	0x20000010

10004198 <sbrk_aligned>:
10004198:	b570      	push	{r4, r5, r6, lr}
1000419a:	4e0f      	ldr	r6, [pc, #60]	@ (100041d8 <sbrk_aligned+0x40>)
1000419c:	460c      	mov	r4, r1
1000419e:	4605      	mov	r5, r0
100041a0:	6831      	ldr	r1, [r6, #0]
100041a2:	b911      	cbnz	r1, 100041aa <sbrk_aligned+0x12>
100041a4:	f000 f906 	bl	100043b4 <_sbrk_r>
100041a8:	6030      	str	r0, [r6, #0]
100041aa:	4621      	mov	r1, r4
100041ac:	4628      	mov	r0, r5
100041ae:	f000 f901 	bl	100043b4 <_sbrk_r>
100041b2:	1c43      	adds	r3, r0, #1
100041b4:	d103      	bne.n	100041be <sbrk_aligned+0x26>
100041b6:	f04f 34ff 	mov.w	r4, #4294967295	@ 0xffffffff
100041ba:	4620      	mov	r0, r4
100041bc:	bd70      	pop	{r4, r5, r6, pc}
100041be:	1cc4      	adds	r4, r0, #3
100041c0:	f024 0403 	bic.w	r4, r4, #3
100041c4:	42a0      	cmp	r0, r4
100041c6:	d0f8      	beq.n	100041ba <sbrk_aligned+0x22>
100041c8:	1a21      	subs	r1, r4, r0
100041ca:	4628      	mov	r0, r5
100041cc:	f000 f8f2 	bl	100043b4 <_sbrk_r>
100041d0:	3001      	adds	r0, #1
100041d2:	d1f2      	bne.n	100041ba <sbrk_aligned+0x22>
100041d4:	e7ef      	b.n	100041b6 <sbrk_aligned+0x1e>
100041d6:	bf00      	nop
100041d8:	200004d8 	.word	0x200004d8

100041dc <_malloc_r>:
100041dc:	e92d 43f8 	stmdb	sp!, {r3, r4, r5, r6, r7, r8, r9, lr}
100041e0:	1ccd      	adds	r5, r1, #3
100041e2:	4606      	mov	r6, r0
100041e4:	f025 0503 	bic.w	r5, r5, #3
100041e8:	3508      	adds	r5, #8
100041ea:	2d0c      	cmp	r5, #12
100041ec:	bf38      	it	cc
100041ee:	250c      	movcc	r5, #12
100041f0:	2d00      	cmp	r5, #0
100041f2:	db01      	blt.n	100041f8 <_malloc_r+0x1c>
100041f4:	42a9      	cmp	r1, r5
100041f6:	d904      	bls.n	10004202 <_malloc_r+0x26>
100041f8:	230c      	movs	r3, #12
100041fa:	6033      	str	r3, [r6, #0]
100041fc:	2000      	movs	r0, #0
100041fe:	e8bd 83f8 	ldmia.w	sp!, {r3, r4, r5, r6, r7, r8, r9, pc}
10004202:	f8df 80d4 	ldr.w	r8, [pc, #212]	@ 100042d8 <_malloc_r+0xfc>
10004206:	f000 f869 	bl	100042dc <__malloc_lock>
1000420a:	f8d8 3000 	ldr.w	r3, [r8]
1000420e:	461c      	mov	r4, r3
10004210:	bb44      	cbnz	r4, 10004264 <_malloc_r+0x88>
10004212:	4629      	mov	r1, r5
10004214:	4630      	mov	r0, r6
10004216:	f7ff ffbf 	bl	10004198 <sbrk_aligned>
1000421a:	1c43      	adds	r3, r0, #1
1000421c:	4604      	mov	r4, r0
1000421e:	d158      	bne.n	100042d2 <_malloc_r+0xf6>
10004220:	f8d8 4000 	ldr.w	r4, [r8]
10004224:	4627      	mov	r7, r4
10004226:	2f00      	cmp	r7, #0
10004228:	d143      	bne.n	100042b2 <_malloc_r+0xd6>
1000422a:	2c00      	cmp	r4, #0
1000422c:	d04b      	beq.n	100042c6 <_malloc_r+0xea>
1000422e:	6823      	ldr	r3, [r4, #0]
10004230:	4639      	mov	r1, r7
10004232:	4630      	mov	r0, r6
10004234:	eb04 0903 	add.w	r9, r4, r3
10004238:	f000 f8bc 	bl	100043b4 <_sbrk_r>
1000423c:	4581      	cmp	r9, r0
1000423e:	d142      	bne.n	100042c6 <_malloc_r+0xea>
10004240:	6821      	ldr	r1, [r4, #0]
10004242:	4630      	mov	r0, r6
10004244:	1a6d      	subs	r5, r5, r1
10004246:	4629      	mov	r1, r5
10004248:	f7ff ffa6 	bl	10004198 <sbrk_aligned>
1000424c:	3001      	adds	r0, #1
1000424e:	d03a      	beq.n	100042c6 <_malloc_r+0xea>
10004250:	6823      	ldr	r3, [r4, #0]
10004252:	442b      	add	r3, r5
10004254:	6023      	str	r3, [r4, #0]
10004256:	f8d8 3000 	ldr.w	r3, [r8]
1000425a:	685a      	ldr	r2, [r3, #4]
1000425c:	bb62      	cbnz	r2, 100042b8 <_malloc_r+0xdc>
1000425e:	f8c8 7000 	str.w	r7, [r8]
10004262:	e00f      	b.n	10004284 <_malloc_r+0xa8>
10004264:	6822      	ldr	r2, [r4, #0]
10004266:	1b52      	subs	r2, r2, r5
10004268:	d420      	bmi.n	100042ac <_malloc_r+0xd0>
1000426a:	2a0b      	cmp	r2, #11
1000426c:	d917      	bls.n	1000429e <_malloc_r+0xc2>
1000426e:	1961      	adds	r1, r4, r5
10004270:	42a3      	cmp	r3, r4
10004272:	6025      	str	r5, [r4, #0]
10004274:	bf18      	it	ne
10004276:	6059      	strne	r1, [r3, #4]
10004278:	6863      	ldr	r3, [r4, #4]
1000427a:	bf08      	it	eq
1000427c:	f8c8 1000 	streq.w	r1, [r8]
10004280:	5162      	str	r2, [r4, r5]
10004282:	604b      	str	r3, [r1, #4]
10004284:	4630      	mov	r0, r6
10004286:	f000 f82f 	bl	100042e8 <__malloc_unlock>
1000428a:	f104 000b 	add.w	r0, r4, #11
1000428e:	1d23      	adds	r3, r4, #4
10004290:	f020 0007 	bic.w	r0, r0, #7
10004294:	1ac2      	subs	r2, r0, r3
10004296:	bf1c      	itt	ne
10004298:	1a1b      	subne	r3, r3, r0
1000429a:	50a3      	strne	r3, [r4, r2]
1000429c:	e7af      	b.n	100041fe <_malloc_r+0x22>
1000429e:	6862      	ldr	r2, [r4, #4]
100042a0:	42a3      	cmp	r3, r4
100042a2:	bf0c      	ite	eq
100042a4:	f8c8 2000 	streq.w	r2, [r8]
100042a8:	605a      	strne	r2, [r3, #4]
100042aa:	e7eb      	b.n	10004284 <_malloc_r+0xa8>
100042ac:	4623      	mov	r3, r4
100042ae:	6864      	ldr	r4, [r4, #4]
100042b0:	e7ae      	b.n	10004210 <_malloc_r+0x34>
100042b2:	463c      	mov	r4, r7
100042b4:	687f      	ldr	r7, [r7, #4]
100042b6:	e7b6      	b.n	10004226 <_malloc_r+0x4a>
100042b8:	461a      	mov	r2, r3
100042ba:	685b      	ldr	r3, [r3, #4]
100042bc:	42a3      	cmp	r3, r4
100042be:	d1fb      	bne.n	100042b8 <_malloc_r+0xdc>
100042c0:	2300      	movs	r3, #0
100042c2:	6053      	str	r3, [r2, #4]
100042c4:	e7de      	b.n	10004284 <_malloc_r+0xa8>
100042c6:	230c      	movs	r3, #12
100042c8:	4630      	mov	r0, r6
100042ca:	6033      	str	r3, [r6, #0]
100042cc:	f000 f80c 	bl	100042e8 <__malloc_unlock>
100042d0:	e794      	b.n	100041fc <_malloc_r+0x20>
100042d2:	6005      	str	r5, [r0, #0]
100042d4:	e7d6      	b.n	10004284 <_malloc_r+0xa8>
100042d6:	bf00      	nop
100042d8:	200004d4 	.word	0x200004d4

100042dc <__malloc_lock>:
100042dc:	4801      	ldr	r0, [pc, #4]	@ (100042e4 <__malloc_lock+0x8>)
100042de:	f000 b89d 	b.w	1000441c <__retarget_lock_acquire_recursive>
100042e2:	bf00      	nop
100042e4:	20000648 	.word	0x20000648

100042e8 <__malloc_unlock>:
100042e8:	4801      	ldr	r0, [pc, #4]	@ (100042f0 <__malloc_unlock+0x8>)
100042ea:	f000 b898 	b.w	1000441e <__retarget_lock_release_recursive>
100042ee:	bf00      	nop
100042f0:	20000648 	.word	0x20000648

100042f4 <memset>:
100042f4:	4402      	add	r2, r0
100042f6:	4603      	mov	r3, r0
100042f8:	4293      	cmp	r3, r2
100042fa:	d100      	bne.n	100042fe <memset+0xa>
100042fc:	4770      	bx	lr
100042fe:	f803 1b01 	strb.w	r1, [r3], #1
10004302:	e7f9      	b.n	100042f8 <memset+0x4>

10004304 <strncpy>:
10004304:	3901      	subs	r1, #1
10004306:	4603      	mov	r3, r0
10004308:	b510      	push	{r4, lr}
1000430a:	b132      	cbz	r2, 1000431a <strncpy+0x16>
1000430c:	f811 4f01 	ldrb.w	r4, [r1, #1]!
10004310:	3a01      	subs	r2, #1
10004312:	f803 4b01 	strb.w	r4, [r3], #1
10004316:	2c00      	cmp	r4, #0
10004318:	d1f7      	bne.n	1000430a <strncpy+0x6>
1000431a:	441a      	add	r2, r3
1000431c:	2100      	movs	r1, #0
1000431e:	4293      	cmp	r3, r2
10004320:	d100      	bne.n	10004324 <strncpy+0x20>
10004322:	bd10      	pop	{r4, pc}
10004324:	f803 1b01 	strb.w	r1, [r3], #1
10004328:	e7f9      	b.n	1000431e <strncpy+0x1a>

1000432a <_raise_r>:
1000432a:	291f      	cmp	r1, #31
1000432c:	b538      	push	{r3, r4, r5, lr}
1000432e:	4605      	mov	r5, r0
10004330:	460c      	mov	r4, r1
10004332:	d904      	bls.n	1000433e <_raise_r+0x14>
10004334:	2316      	movs	r3, #22
10004336:	6003      	str	r3, [r0, #0]
10004338:	f04f 30ff 	mov.w	r0, #4294967295	@ 0xffffffff
1000433c:	bd38      	pop	{r3, r4, r5, pc}
1000433e:	6bc2      	ldr	r2, [r0, #60]	@ 0x3c
10004340:	b112      	cbz	r2, 10004348 <_raise_r+0x1e>
10004342:	f852 3021 	ldr.w	r3, [r2, r1, lsl #2]
10004346:	b94b      	cbnz	r3, 1000435c <_raise_r+0x32>
10004348:	4628      	mov	r0, r5
1000434a:	f000 f831 	bl	100043b0 <_getpid_r>
1000434e:	4622      	mov	r2, r4
10004350:	4601      	mov	r1, r0
10004352:	4628      	mov	r0, r5
10004354:	e8bd 4038 	ldmia.w	sp!, {r3, r4, r5, lr}
10004358:	f000 b818 	b.w	1000438c <_kill_r>
1000435c:	2b01      	cmp	r3, #1
1000435e:	d00a      	beq.n	10004376 <_raise_r+0x4c>
10004360:	1c59      	adds	r1, r3, #1
10004362:	d103      	bne.n	1000436c <_raise_r+0x42>
10004364:	2316      	movs	r3, #22
10004366:	6003      	str	r3, [r0, #0]
10004368:	2001      	movs	r0, #1
1000436a:	e7e7      	b.n	1000433c <_raise_r+0x12>
1000436c:	2100      	movs	r1, #0
1000436e:	4620      	mov	r0, r4
10004370:	f842 1024 	str.w	r1, [r2, r4, lsl #2]
10004374:	4798      	blx	r3
10004376:	2000      	movs	r0, #0
10004378:	e7e0      	b.n	1000433c <_raise_r+0x12>
	...

1000437c <raise>:
1000437c:	4b02      	ldr	r3, [pc, #8]	@ (10004388 <raise+0xc>)
1000437e:	4601      	mov	r1, r0
10004380:	6818      	ldr	r0, [r3, #0]
10004382:	f7ff bfd2 	b.w	1000432a <_raise_r>
10004386:	bf00      	nop
10004388:	20000010 	.word	0x20000010

1000438c <_kill_r>:
1000438c:	b538      	push	{r3, r4, r5, lr}
1000438e:	2300      	movs	r3, #0
10004390:	4d06      	ldr	r5, [pc, #24]	@ (100043ac <_kill_r+0x20>)
10004392:	4604      	mov	r4, r0
10004394:	4608      	mov	r0, r1
10004396:	4611      	mov	r1, r2
10004398:	602b      	str	r3, [r5, #0]
1000439a:	f7fe feed 	bl	10003178 <_close>
1000439e:	1c43      	adds	r3, r0, #1
100043a0:	d102      	bne.n	100043a8 <_kill_r+0x1c>
100043a2:	682b      	ldr	r3, [r5, #0]
100043a4:	b103      	cbz	r3, 100043a8 <_kill_r+0x1c>
100043a6:	6023      	str	r3, [r4, #0]
100043a8:	bd38      	pop	{r3, r4, r5, pc}
100043aa:	bf00      	nop
100043ac:	20000618 	.word	0x20000618

100043b0 <_getpid_r>:
100043b0:	f7fe bee2 	b.w	10003178 <_close>

100043b4 <_sbrk_r>:
100043b4:	b538      	push	{r3, r4, r5, lr}
100043b6:	2300      	movs	r3, #0
100043b8:	4d05      	ldr	r5, [pc, #20]	@ (100043d0 <_sbrk_r+0x1c>)
100043ba:	4604      	mov	r4, r0
100043bc:	4608      	mov	r0, r1
100043be:	602b      	str	r3, [r5, #0]
100043c0:	f000 f886 	bl	100044d0 <_sbrk>
100043c4:	1c43      	adds	r3, r0, #1
100043c6:	d102      	bne.n	100043ce <_sbrk_r+0x1a>
100043c8:	682b      	ldr	r3, [r5, #0]
100043ca:	b103      	cbz	r3, 100043ce <_sbrk_r+0x1a>
100043cc:	6023      	str	r3, [r4, #0]
100043ce:	bd38      	pop	{r3, r4, r5, pc}
100043d0:	20000618 	.word	0x20000618

100043d4 <__libc_init_array>:
100043d4:	b570      	push	{r4, r5, r6, lr}
100043d6:	4b0d      	ldr	r3, [pc, #52]	@ (1000440c <__libc_init_array+0x38>)
100043d8:	2600      	movs	r6, #0
100043da:	4d0d      	ldr	r5, [pc, #52]	@ (10004410 <__libc_init_array+0x3c>)
100043dc:	1b5b      	subs	r3, r3, r5
100043de:	109c      	asrs	r4, r3, #2
100043e0:	42a6      	cmp	r6, r4
100043e2:	d109      	bne.n	100043f8 <__libc_init_array+0x24>
100043e4:	4d0b      	ldr	r5, [pc, #44]	@ (10004414 <__libc_init_array+0x40>)
100043e6:	f000 f885 	bl	100044f4 <_init>
100043ea:	4b0b      	ldr	r3, [pc, #44]	@ (10004418 <__libc_init_array+0x44>)
100043ec:	2600      	movs	r6, #0
100043ee:	1b5b      	subs	r3, r3, r5
100043f0:	109c      	asrs	r4, r3, #2
100043f2:	42a6      	cmp	r6, r4
100043f4:	d105      	bne.n	10004402 <__libc_init_array+0x2e>
100043f6:	bd70      	pop	{r4, r5, r6, pc}
100043f8:	f855 3b04 	ldr.w	r3, [r5], #4
100043fc:	3601      	adds	r6, #1
100043fe:	4798      	blx	r3
10004400:	e7ee      	b.n	100043e0 <__libc_init_array+0xc>
10004402:	f855 3b04 	ldr.w	r3, [r5], #4
10004406:	3601      	adds	r6, #1
10004408:	4798      	blx	r3
1000440a:	e7f2      	b.n	100043f2 <__libc_init_array+0x1e>
1000440c:	1000450c 	.word	0x1000450c
10004410:	1000450c 	.word	0x1000450c
10004414:	1000450c 	.word	0x1000450c
10004418:	1000452c 	.word	0x1000452c

1000441c <__retarget_lock_acquire_recursive>:
1000441c:	4770      	bx	lr

1000441e <__retarget_lock_release_recursive>:
1000441e:	4770      	bx	lr

10004420 <__cxa_atexit>:
10004420:	b510      	push	{r4, lr}
10004422:	4604      	mov	r4, r0
10004424:	4804      	ldr	r0, [pc, #16]	@ (10004438 <__cxa_atexit+0x18>)
10004426:	4613      	mov	r3, r2
10004428:	b120      	cbz	r0, 10004434 <__cxa_atexit+0x14>
1000442a:	460a      	mov	r2, r1
1000442c:	2002      	movs	r0, #2
1000442e:	4621      	mov	r1, r4
10004430:	f3af 8000 	nop.w
10004434:	bd10      	pop	{r4, pc}
10004436:	bf00      	nop
10004438:	00000000 	.word	0x00000000

1000443c <_free_r>:
1000443c:	b538      	push	{r3, r4, r5, lr}
1000443e:	4605      	mov	r5, r0
10004440:	2900      	cmp	r1, #0
10004442:	d041      	beq.n	100044c8 <_free_r+0x8c>
10004444:	f851 3c04 	ldr.w	r3, [r1, #-4]
10004448:	1f0c      	subs	r4, r1, #4
1000444a:	2b00      	cmp	r3, #0
1000444c:	bfb8      	it	lt
1000444e:	18e4      	addlt	r4, r4, r3
10004450:	f7ff ff44 	bl	100042dc <__malloc_lock>
10004454:	4a1d      	ldr	r2, [pc, #116]	@ (100044cc <_free_r+0x90>)
10004456:	6813      	ldr	r3, [r2, #0]
10004458:	b933      	cbnz	r3, 10004468 <_free_r+0x2c>
1000445a:	6063      	str	r3, [r4, #4]
1000445c:	6014      	str	r4, [r2, #0]
1000445e:	4628      	mov	r0, r5
10004460:	e8bd 4038 	ldmia.w	sp!, {r3, r4, r5, lr}
10004464:	f7ff bf40 	b.w	100042e8 <__malloc_unlock>
10004468:	42a3      	cmp	r3, r4
1000446a:	d908      	bls.n	1000447e <_free_r+0x42>
1000446c:	6820      	ldr	r0, [r4, #0]
1000446e:	1821      	adds	r1, r4, r0
10004470:	428b      	cmp	r3, r1
10004472:	bf01      	itttt	eq
10004474:	6819      	ldreq	r1, [r3, #0]
10004476:	685b      	ldreq	r3, [r3, #4]
10004478:	1809      	addeq	r1, r1, r0
1000447a:	6021      	streq	r1, [r4, #0]
1000447c:	e7ed      	b.n	1000445a <_free_r+0x1e>
1000447e:	461a      	mov	r2, r3
10004480:	685b      	ldr	r3, [r3, #4]
10004482:	b10b      	cbz	r3, 10004488 <_free_r+0x4c>
10004484:	42a3      	cmp	r3, r4
10004486:	d9fa      	bls.n	1000447e <_free_r+0x42>
10004488:	6811      	ldr	r1, [r2, #0]
1000448a:	1850      	adds	r0, r2, r1
1000448c:	42a0      	cmp	r0, r4
1000448e:	d10b      	bne.n	100044a8 <_free_r+0x6c>
10004490:	6820      	ldr	r0, [r4, #0]
10004492:	4401      	add	r1, r0
10004494:	1850      	adds	r0, r2, r1
10004496:	6011      	str	r1, [r2, #0]
10004498:	4283      	cmp	r3, r0
1000449a:	d1e0      	bne.n	1000445e <_free_r+0x22>
1000449c:	6818      	ldr	r0, [r3, #0]
1000449e:	685b      	ldr	r3, [r3, #4]
100044a0:	4408      	add	r0, r1
100044a2:	6053      	str	r3, [r2, #4]
100044a4:	6010      	str	r0, [r2, #0]
100044a6:	e7da      	b.n	1000445e <_free_r+0x22>
100044a8:	d902      	bls.n	100044b0 <_free_r+0x74>
100044aa:	230c      	movs	r3, #12
100044ac:	602b      	str	r3, [r5, #0]
100044ae:	e7d6      	b.n	1000445e <_free_r+0x22>
100044b0:	6820      	ldr	r0, [r4, #0]
100044b2:	1821      	adds	r1, r4, r0
100044b4:	428b      	cmp	r3, r1
100044b6:	bf02      	ittt	eq
100044b8:	6819      	ldreq	r1, [r3, #0]
100044ba:	685b      	ldreq	r3, [r3, #4]
100044bc:	1809      	addeq	r1, r1, r0
100044be:	6063      	str	r3, [r4, #4]
100044c0:	bf08      	it	eq
100044c2:	6021      	streq	r1, [r4, #0]
100044c4:	6054      	str	r4, [r2, #4]
100044c6:	e7ca      	b.n	1000445e <_free_r+0x22>
100044c8:	bd38      	pop	{r3, r4, r5, pc}
100044ca:	bf00      	nop
100044cc:	200004d4 	.word	0x200004d4

100044d0 <_sbrk>:
100044d0:	4a05      	ldr	r2, [pc, #20]	@ (100044e8 <_sbrk+0x18>)
100044d2:	4603      	mov	r3, r0
100044d4:	6810      	ldr	r0, [r2, #0]
100044d6:	b110      	cbz	r0, 100044de <_sbrk+0xe>
100044d8:	4403      	add	r3, r0
100044da:	6013      	str	r3, [r2, #0]
100044dc:	4770      	bx	lr
100044de:	4803      	ldr	r0, [pc, #12]	@ (100044ec <_sbrk+0x1c>)
100044e0:	4403      	add	r3, r0
100044e2:	6013      	str	r3, [r2, #0]
100044e4:	4770      	bx	lr
100044e6:	bf00      	nop
100044e8:	2000061c 	.word	0x2000061c
100044ec:	2000064c 	.word	0x2000064c

100044f0 <_exit>:
100044f0:	e7fe      	b.n	100044f0 <_exit>
100044f2:	bf00      	nop

100044f4 <_init>:
100044f4:	b5f8      	push	{r3, r4, r5, r6, r7, lr}
100044f6:	bf00      	nop
100044f8:	bcf8      	pop	{r3, r4, r5, r6, r7}
100044fa:	bc08      	pop	{r3}
100044fc:	469e      	mov	lr, r3
100044fe:	4770      	bx	lr

10004500 <_fini>:
10004500:	b5f8      	push	{r3, r4, r5, r6, r7, lr}
10004502:	bf00      	nop
10004504:	bcf8      	pop	{r3, r4, r5, r6, r7}
10004506:	bc08      	pop	{r3}
10004508:	469e      	mov	lr, r3
1000450a:	4770      	bx	lr

1000450c <__frame_dummy_init_array_entry>:
1000450c:	0209 1000 0af9 1000 174d 1000 1e0d 1000     ........M.......
1000451c:	264d 1000 2675 1000 2dfd 1000 30a5 1000     M&..u&...-...0..

1000452c <__do_global_dtors_aux_fini_array_entry>:
1000452c:	01e1 1000                                   ....

10004530 <_stack_init>:
10004530:	f5a3 3a80 	sub.w	sl, r3, #65536	@ 0x10000
10004534:	4770      	bx	lr
10004536:	bf00      	nop

10004538 <_mainCRTStartup>:
10004538:	4b17      	ldr	r3, [pc, #92]	@ (10004598 <_mainCRTStartup+0x60>)
1000453a:	2b00      	cmp	r3, #0
1000453c:	bf08      	it	eq
1000453e:	4b13      	ldreq	r3, [pc, #76]	@ (1000458c <_mainCRTStartup+0x54>)
10004540:	469d      	mov	sp, r3
10004542:	f7ff fff5 	bl	10004530 <_stack_init>
10004546:	2100      	movs	r1, #0
10004548:	468b      	mov	fp, r1
1000454a:	460f      	mov	r7, r1
1000454c:	4813      	ldr	r0, [pc, #76]	@ (1000459c <_mainCRTStartup+0x64>)
1000454e:	4a14      	ldr	r2, [pc, #80]	@ (100045a0 <_mainCRTStartup+0x68>)
10004550:	1a12      	subs	r2, r2, r0
10004552:	f7ff fecf 	bl	100042f4 <memset>
10004556:	4b0e      	ldr	r3, [pc, #56]	@ (10004590 <_mainCRTStartup+0x58>)
10004558:	2b00      	cmp	r3, #0
1000455a:	d000      	beq.n	1000455e <_mainCRTStartup+0x26>
1000455c:	4798      	blx	r3
1000455e:	4b0d      	ldr	r3, [pc, #52]	@ (10004594 <_mainCRTStartup+0x5c>)
10004560:	2b00      	cmp	r3, #0
10004562:	d000      	beq.n	10004566 <_mainCRTStartup+0x2e>
10004564:	4798      	blx	r3
10004566:	2000      	movs	r0, #0
10004568:	2100      	movs	r1, #0
1000456a:	0004      	movs	r4, r0
1000456c:	000d      	movs	r5, r1
1000456e:	480d      	ldr	r0, [pc, #52]	@ (100045a4 <_mainCRTStartup+0x6c>)
10004570:	2800      	cmp	r0, #0
10004572:	d002      	beq.n	1000457a <_mainCRTStartup+0x42>
10004574:	480c      	ldr	r0, [pc, #48]	@ (100045a8 <_mainCRTStartup+0x70>)
10004576:	f3af 8000 	nop.w
1000457a:	f7ff ff2b 	bl	100043d4 <__libc_init_array>
1000457e:	0020      	movs	r0, r4
10004580:	0029      	movs	r1, r5
10004582:	f7fb fe53 	bl	1000022c <main>
10004586:	f7ff fde5 	bl	10004154 <exit>
1000458a:	bf00      	nop
1000458c:	00080000 	.word	0x00080000
	...
10004598:	20080000 	.word	0x20080000
1000459c:	20000060 	.word	0x20000060
100045a0:	2000064c 	.word	0x2000064c
	...

100045ac <__aeabi_uldivmod>:
100045ac:	b953      	cbnz	r3, 100045c4 <__aeabi_uldivmod+0x18>
100045ae:	b94a      	cbnz	r2, 100045c4 <__aeabi_uldivmod+0x18>
100045b0:	2900      	cmp	r1, #0
100045b2:	bf08      	it	eq
100045b4:	2800      	cmpeq	r0, #0
100045b6:	bf1c      	itt	ne
100045b8:	f04f 31ff 	movne.w	r1, #4294967295	@ 0xffffffff
100045bc:	f04f 30ff 	movne.w	r0, #4294967295	@ 0xffffffff
100045c0:	f000 b80c 	b.w	100045dc <__aeabi_idiv0>
100045c4:	f1ad 0c08 	sub.w	ip, sp, #8
100045c8:	e96d ce04 	strd	ip, lr, [sp, #-16]!
100045cc:	f7ff fc14 	bl	10003df8 <__udivmoddi4>
100045d0:	f8dd e004 	ldr.w	lr, [sp, #4]
100045d4:	e9dd 2302 	ldrd	r2, r3, [sp, #8]
100045d8:	b004      	add	sp, #16
100045da:	4770      	bx	lr

100045dc <__aeabi_idiv0>:
100045dc:	4770      	bx	lr
100045de:	bf00      	nop
